
Optional file libmchp_peripheral.a not found
Archive member included because of file (symbol)

c:/program files/microchip/xc32/v2.50/bin/bin/../../lib/gcc/pic32mx/4.8.3/../../../../pic32mx/lib/fpu64\libpic32.a(strcmp.o)
                              build/TEST/production/_ext/2070436302/mod_refclk.o (strcmp)
c:/program files/microchip/xc32/v2.50/bin/bin/../../lib/gcc/pic32mx/4.8.3/../../../../pic32mx/lib/fpu64\libpic32.a(strlen.o)
                              build/TEST/production/_ext/2070436302/genclk.o (strlen)
c:/program files/microchip/xc32/v2.50/bin/bin/../../lib/gcc/pic32mx/4.8.3/../../../../pic32mx/lib/fpu64\libpic32.a(default-bootstrap-exception-handler.o)
                              C:\Users\fg67bz\AppData\Local\Temp\ccOypprZ.o (_bootstrap_exception_handler)
c:/program files/microchip/xc32/v2.50/bin/bin/../../lib/gcc/pic32mx/4.8.3/../../../../pic32mx/lib/fpu64\libpic32.a(default-on-reset.o)
                              C:\Users\fg67bz\AppData\Local\Temp\ccOypprZ.o (_on_reset)
c:/program files/microchip/xc32/v2.50/bin/bin/../../lib/gcc/pic32mx/4.8.3/../../../../pic32mx/lib/fpu64\libpic32.a(default-on-bootstrap.o)
                              C:\Users\fg67bz\AppData\Local\Temp\ccOypprZ.o (_on_bootstrap)
c:/program files/microchip/xc32/v2.50/bin/bin/../../lib/gcc/pic32mx/4.8.3/../../../../pic32mx/lib/fpu64\libpic32.a(default-nmi-handler.o)
                              C:\Users\fg67bz\AppData\Local\Temp\ccOypprZ.o (_nmi_handler)
c:/program files/microchip/xc32/v2.50/bin/bin/../../lib/gcc/pic32mx/4.8.3/../../../../pic32mx/lib/fpu64\libpic32.a(pic32_data_init.o)
                              C:\Users\fg67bz\AppData\Local\Temp\ccOypprZ.o (__pic32_data_init)
c:/program files/microchip/xc32/v2.50/bin/bin/../../lib/gcc/pic32mx/4.8.3/../../../../pic32mx/lib/fpu64\libpic32.a(pic32_init_cache.o)
                              C:\Users\fg67bz\AppData\Local\Temp\ccOypprZ.o (__pic32_init_cache)
c:/program files/microchip/xc32/v2.50/bin/bin/../../lib/gcc/pic32mx/4.8.3/../../../../pic32mx/lib/fpu64\libpic32.a(pic32_init_tlb_ebi_sqi.o)
                              C:\Users\fg67bz\AppData\Local\Temp\ccOypprZ.o (__pic32_tlb_init_ebi_sqi)
c:/program files/microchip/xc32/v2.50/bin/bin/../../lib/gcc/pic32mx/4.8.3/../../../../pic32mx/lib/fpu64\libpic32.a(general-exception.o)
                              C:\Users\fg67bz\AppData\Local\Temp\ccOypprZ.o (_general_exception_context)
c:/program files/microchip/xc32/v2.50/bin/bin/../../lib/gcc/pic32mx/4.8.3/../../../../pic32mx/lib/fpu64\libpic32.a(cache-err-exception.o)
                              C:\Users\fg67bz\AppData\Local\Temp\ccOypprZ.o (_cache_err_exception_context)
c:/program files/microchip/xc32/v2.50/bin/bin/../../lib/gcc/pic32mx/4.8.3/../../../../pic32mx/lib/fpu64\libpic32.a(simple-tlb-refill-exception.o)
                              C:\Users\fg67bz\AppData\Local\Temp\ccOypprZ.o (_simple_tlb_refill_exception_context)
c:/program files/microchip/xc32/v2.50/bin/bin/../../lib/gcc/pic32mx/4.8.3/../../../../pic32mx/lib/fpu64\libpic32.a(defaultinterrupt.o)
                              C:\Users\fg67bz\AppData\Local\Temp\cctZhIA8.o (_DefaultInterrupt)
c:/program files/microchip/xc32/v2.50/bin/bin/../../lib/gcc/pic32mx/4.8.3/../../../../pic32mx/lib/fpu64\libpic32.a(default-cache-err-exception-handler.o)
                              c:/program files/microchip/xc32/v2.50/bin/bin/../../lib/gcc/pic32mx/4.8.3/../../../../pic32mx/lib/fpu64\libpic32.a(cache-err-exception.o) (_cache_err_exception_handler)
c:/program files/microchip/xc32/v2.50/bin/bin/../../lib/gcc/pic32mx/4.8.3/../../../../pic32mx/lib/fpu64\libpic32.a(default-simple-tlb-refill-exception-handler.o)
                              c:/program files/microchip/xc32/v2.50/bin/bin/../../lib/gcc/pic32mx/4.8.3/../../../../pic32mx/lib/fpu64\libpic32.a(simple-tlb-refill-exception.o) (_simple_tlb_refill_exception_handler)
c:/program files/microchip/xc32/v2.50/bin/bin/../../lib/gcc/pic32mx/4.8.3/../../../../pic32mx/lib/fpu64\liblega-c.a(strtol.o)
                              build/TEST/production/_ext/2070436302/mod_swspi.o (strtol)
c:/program files/microchip/xc32/v2.50/bin/bin/../../lib/gcc/pic32mx/4.8.3/../../../../pic32mx/lib/fpu64\liblega-c.a(fputc.o)
                              build/TEST/production/_ext/2070436302/mod_spi.o (putchar)
c:/program files/microchip/xc32/v2.50/bin/bin/../../lib/gcc/pic32mx/4.8.3/../../../../pic32mx/lib/fpu64\liblega-c.a(fputs.o)
                              build/TEST/production/_ext/801483606/on_parameter_found.o (puts)
c:/program files/microchip/xc32/v2.50/bin/bin/../../lib/gcc/pic32mx/4.8.3/../../../../pic32mx/lib/fpu64\liblega-c.a(printf_cdnopsuxX.eo)
                              build/TEST/production/_ext/801483606/app.o (_printf_cdnopsuxX)
c:/program files/microchip/xc32/v2.50/bin/bin/../../lib/gcc/pic32mx/4.8.3/../../../../pic32mx/lib/fpu64\liblega-c.a(printf_cdnopuxX.eo)
                              build/TEST/production/_ext/2070436302/mod_spi.o (_printf_cdnopuxX)
c:/program files/microchip/xc32/v2.50/bin/bin/../../lib/gcc/pic32mx/4.8.3/../../../../pic32mx/lib/fpu64\liblega-c.a(printf_s.eo)
                              build/TEST/production/_ext/2070436302/genclk.o (_printf_0)
c:/program files/microchip/xc32/v2.50/bin/bin/../../lib/gcc/pic32mx/4.8.3/../../../../pic32mx/lib/fpu64\liblega-c.a(printf.o)
                              build/TEST/production/_ext/801483606/on_parameter_found.o (printf)
c:/program files/microchip/xc32/v2.50/bin/bin/../../lib/gcc/pic32mx/4.8.3/../../../../pic32mx/lib/fpu64\liblega-c.a(sprintf_cdnopsuxX.eo)
                              build/TEST/production/_ext/73441385/system_error.o (_sprintf_cdnopsuxX)
c:/program files/microchip/xc32/v2.50/bin/bin/../../lib/gcc/pic32mx/4.8.3/../../../../pic32mx/lib/fpu64\liblega-c.a(sprintf_cdnopuxX.eo)
                              build/TEST/production/_ext/2070436302/unisequencer.o (_sprintf_cdnopuxX)
c:/program files/microchip/xc32/v2.50/bin/bin/../../lib/gcc/pic32mx/4.8.3/../../../../pic32mx/lib/fpu64\liblega-c.a(sscanf_cdnopuxX.eo)
                              build/TEST/production/_ext/2070436302/scanchain.o (_sscanf_cdnopuxX)
c:/program files/microchip/xc32/v2.50/bin/bin/../../lib/gcc/pic32mx/4.8.3/../../../../pic32mx/lib/fpu64\liblega-c.a(ctype.o)
                              c:/program files/microchip/xc32/v2.50/bin/bin/../../lib/gcc/pic32mx/4.8.3/../../../../pic32mx/lib/fpu64\liblega-c.a(strtol.o) (_ctype)
c:/program files/microchip/xc32/v2.50/bin/bin/../../lib/gcc/pic32mx/4.8.3/../../../../pic32mx/lib/fpu64\liblega-c.a(errno.o)
                              c:/program files/microchip/xc32/v2.50/bin/bin/../../lib/gcc/pic32mx/4.8.3/../../../../pic32mx/lib/fpu64\liblega-c.a(strtol.o) (errno)
c:/program files/microchip/xc32/v2.50/bin/bin/../../lib/gcc/pic32mx/4.8.3/../../../../pic32mx/lib/fpu64\liblega-c.a(_doprnt_cdnopsuxX.eo)
                              c:/program files/microchip/xc32/v2.50/bin/bin/../../lib/gcc/pic32mx/4.8.3/../../../../pic32mx/lib/fpu64\liblega-c.a(printf_cdnopsuxX.eo) (_do_print_cdnopsuxX)
c:/program files/microchip/xc32/v2.50/bin/bin/../../lib/gcc/pic32mx/4.8.3/../../../../pic32mx/lib/fpu64\liblega-c.a(_doprnt_cdnopuxX.eo)
                              c:/program files/microchip/xc32/v2.50/bin/bin/../../lib/gcc/pic32mx/4.8.3/../../../../pic32mx/lib/fpu64\liblega-c.a(printf_cdnopuxX.eo) (_do_print_cdnopuxX)
c:/program files/microchip/xc32/v2.50/bin/bin/../../lib/gcc/pic32mx/4.8.3/../../../../pic32mx/lib/fpu64\liblega-c.a(_doprnt_s.eo)
                              c:/program files/microchip/xc32/v2.50/bin/bin/../../lib/gcc/pic32mx/4.8.3/../../../../pic32mx/lib/fpu64\liblega-c.a(printf_s.eo) (_do_print_s)
c:/program files/microchip/xc32/v2.50/bin/bin/../../lib/gcc/pic32mx/4.8.3/../../../../pic32mx/lib/fpu64\liblega-c.a(_doprnt.o)
                              c:/program files/microchip/xc32/v2.50/bin/bin/../../lib/gcc/pic32mx/4.8.3/../../../../pic32mx/lib/fpu64\liblega-c.a(printf.o) (do_print)
c:/program files/microchip/xc32/v2.50/bin/bin/../../lib/gcc/pic32mx/4.8.3/../../../../pic32mx/lib/fpu64\liblega-c.a(_iobdata.o)
                              c:/program files/microchip/xc32/v2.50/bin/bin/../../lib/gcc/pic32mx/4.8.3/../../../../pic32mx/lib/fpu64\liblega-c.a(fputc.o) (_libc_data)
c:/program files/microchip/xc32/v2.50/bin/bin/../../lib/gcc/pic32mx/4.8.3/../../../../pic32mx/lib/fpu64\liblega-c.a(_iobfuncs.o)
                              c:/program files/microchip/xc32/v2.50/bin/bin/../../lib/gcc/pic32mx/4.8.3/../../../../pic32mx/lib/fpu64\liblega-c.a(_iobdata.o) (_filbuf_simple)
c:/program files/microchip/xc32/v2.50/bin/bin/../../lib/gcc/pic32mx/4.8.3/../../../../pic32mx/lib/fpu64\liblega-c.a(_iobstring.o)
                              c:/program files/microchip/xc32/v2.50/bin/bin/../../lib/gcc/pic32mx/4.8.3/../../../../pic32mx/lib/fpu64\liblega-c.a(sprintf_cdnopsuxX.eo) (_io_strfuncs)
c:/program files/microchip/xc32/v2.50/bin/bin/../../lib/gcc/pic32mx/4.8.3/../../../../pic32mx/lib/fpu64\liblega-c.a(_doscan.o)
                              c:/program files/microchip/xc32/v2.50/bin/bin/../../lib/gcc/pic32mx/4.8.3/../../../../pic32mx/lib/fpu64\liblega-c.a(sscanf_cdnopuxX.eo) (do_scan)
c:/program files/microchip/xc32/v2.50/bin/bin/../../lib/gcc/pic32mx/4.8.3/../../../../pic32mx/lib/fpu64\liblega-c.a(stubs.o)
                              c:/program files/microchip/xc32/v2.50/bin/bin/../../lib/gcc/pic32mx/4.8.3/../../../../pic32mx/lib/fpu64\liblega-c.a(_doscan.o) (pthread_mutex_lock)
c:/program files/microchip/xc32/v2.50/bin/bin/../../lib/gcc/pic32mx/4.8.3/../../../../pic32mx/lib/fpu64\liblega-c.a(strchr.o)
                              c:/program files/microchip/xc32/v2.50/bin/bin/../../lib/gcc/pic32mx/4.8.3/../../../../pic32mx/lib/fpu64\liblega-c.a(_doscan.o) (strchr)
c:/program files/microchip/xc32/v2.50/bin/bin/../../lib/gcc/pic32mx/4.8.3/../../../../pic32mx/lib/fpu64\liblega-c.a(memset.o)
                              c:/program files/microchip/xc32/v2.50/bin/bin/../../lib/gcc/pic32mx/4.8.3/../../../../pic32mx/lib/fpu64\liblega-c.a(_doscan.o) (memset)
c:/program files/microchip/xc32/v2.50/bin/bin/../../lib/gcc/pic32mx/4.8.3/../../../../pic32mx/lib/fpu64\liblega-c.a(malloc.o)
                              c:/program files/microchip/xc32/v2.50/bin/bin/../../lib/gcc/pic32mx/4.8.3/../../../../pic32mx/lib/fpu64\liblega-c.a(_doscan.o) (free)
c:/program files/microchip/xc32/v2.50/bin/bin/../../lib/gcc/pic32mx/4.8.3/../../../../pic32mx/lib/fpu64\liblega-c.a(malloc_realloc.o)
                              c:/program files/microchip/xc32/v2.50/bin/bin/../../lib/gcc/pic32mx/4.8.3/../../../../pic32mx/lib/fpu64\liblega-c.a(_doscan.o) (realloc)
c:/program files/microchip/xc32/v2.50/bin/bin/../../lib/gcc/pic32mx/4.8.3/../../../../pic32mx/lib/fpu64\liblega-c.a(strtoul.o)
                              c:/program files/microchip/xc32/v2.50/bin/bin/../../lib/gcc/pic32mx/4.8.3/../../../../pic32mx/lib/fpu64\liblega-c.a(_doscan.o) (strtoul)
c:/program files/microchip/xc32/v2.50/bin/bin/../../lib/gcc/pic32mx/4.8.3/../../../../pic32mx/lib/fpu64\liblega-c.a(strtoll.o)
                              c:/program files/microchip/xc32/v2.50/bin/bin/../../lib/gcc/pic32mx/4.8.3/../../../../pic32mx/lib/fpu64\liblega-c.a(_doscan.o) (strtoll)
c:/program files/microchip/xc32/v2.50/bin/bin/../../lib/gcc/pic32mx/4.8.3/../../../../pic32mx/lib/fpu64\liblega-c.a(strtoull.o)
                              c:/program files/microchip/xc32/v2.50/bin/bin/../../lib/gcc/pic32mx/4.8.3/../../../../pic32mx/lib/fpu64\liblega-c.a(_doscan.o) (strtoull)
c:/program files/microchip/xc32/v2.50/bin/bin/../../lib/gcc/pic32mx/4.8.3/../../../../pic32mx/lib/fpu64\liblega-c.a(fullexit.o)
                              c:/program files/microchip/xc32/v2.50/bin/bin/../../lib/gcc/pic32mx/4.8.3/../../../../pic32mx/lib/fpu64\liblega-c.a(_doscan.o) (__exfun_mx)
c:/program files/microchip/xc32/v2.50/bin/bin/../../lib/gcc/pic32mx/4.8.3/../../../../pic32mx/lib/fpu64\liblega-c.a(fgetc.o)
                              c:/program files/microchip/xc32/v2.50/bin/bin/../../lib/gcc/pic32mx/4.8.3/../../../../pic32mx/lib/fpu64\liblega-c.a(_doscan.o) (fgetc)
c:/program files/microchip/xc32/v2.50/bin/bin/../../lib/gcc/pic32mx/4.8.3/../../../../pic32mx/lib/fpu64\liblega-c.a(ungetc.o)
                              c:/program files/microchip/xc32/v2.50/bin/bin/../../lib/gcc/pic32mx/4.8.3/../../../../pic32mx/lib/fpu64\liblega-c.a(_doscan.o) (ungetc)
c:/program files/microchip/xc32/v2.50/bin/bin/../../lib/gcc/pic32mx/4.8.3/../../../../pic32mx/lib/fpu64\liblega-c.a(memmove.o)
                              c:/program files/microchip/xc32/v2.50/bin/bin/../../lib/gcc/pic32mx/4.8.3/../../../../pic32mx/lib/fpu64\liblega-c.a(malloc_realloc.o) (memmove)
c:/program files/microchip/xc32/v2.50/bin/bin/../../lib/gcc/pic32mx/4.8.3/../../../../pic32mx/lib/fpu64\liblega-c.a(memcpy.o)
                              c:/program files/microchip/xc32/v2.50/bin/bin/../../lib/gcc/pic32mx/4.8.3/../../../../pic32mx/lib/fpu64\liblega-c.a(memmove.o) (memcpy)
c:/program files/microchip/xc32/v2.50/bin/bin/../../lib/gcc/pic32mx/4.8.3/../../../../pic32mx/lib/fpu64\liblega-c.a(_ioinit.o)
                              c:/program files/microchip/xc32/v2.50/bin/bin/../../lib/gcc/pic32mx/4.8.3/../../../../pic32mx/lib/fpu64\liblega-c.a(ungetc.o) (_i_init)
c:/program files/microchip/xc32/v2.50/bin/bin/../../lib/gcc/pic32mx/4.8.3/../../../../pic32mx/lib/fpu64\liblega-c.a(_cleanup.o)
                              c:/program files/microchip/xc32/v2.50/bin/bin/../../lib/gcc/pic32mx/4.8.3/../../../../pic32mx/lib/fpu64\liblega-c.a(_ioinit.o) (_cleanup)
c:/program files/microchip/xc32/v2.50/bin/bin/../../lib/gcc/pic32mx/4.8.3/../../../../pic32mx/lib/fpu64\liblega-c.a(_bufproc.o)
                              c:/program files/microchip/xc32/v2.50/bin/bin/../../lib/gcc/pic32mx/4.8.3/../../../../pic32mx/lib/fpu64\liblega-c.a(_ioinit.o) (_bufalloc)
c:/program files/microchip/xc32/v2.50/bin/bin/../../lib/gcc/pic32mx/4.8.3/../../../../pic32mx/lib/fpu64\libmfd.a(s_modf.o)
                              c:/program files/microchip/xc32/v2.50/bin/bin/../../lib/gcc/pic32mx/4.8.3/../../../../pic32mx/lib/fpu64\liblega-c.a(_doprnt.o) (_modfx)
c:/program files/microchip/xc32/v2.50/bin/bin/../../lib/gcc/pic32mx/4.8.3/../../../../pic32mx/lib/fpu64\libmfd.a(strtod.o)
                              c:/program files/microchip/xc32/v2.50/bin/bin/../../lib/gcc/pic32mx/4.8.3/../../../../pic32mx/lib/fpu64\liblega-c.a(_doscan.o) (strtod)
c:/program files/microchip/xc32/v2.50/bin/bin/../../lib/gcc/pic32mx/4.8.3/../../../../pic32mx/lib/fpu64\libmfd.a(strtof.o)
                              c:/program files/microchip/xc32/v2.50/bin/bin/../../lib/gcc/pic32mx/4.8.3/../../../../pic32mx/lib/fpu64\liblega-c.a(_doscan.o) (strtof)
c:/program files/microchip/xc32/v2.50/bin/bin/../../lib/gcc/pic32mx/4.8.3/fpu64\libgcc.a(_divdi3.o)
                              c:/program files/microchip/xc32/v2.50/bin/bin/../../lib/gcc/pic32mx/4.8.3/../../../../pic32mx/lib/fpu64\liblega-c.a(strtoll.o) (__divdi3)
c:/program files/microchip/xc32/v2.50/bin/bin/../../lib/gcc/pic32mx/4.8.3/fpu64\libgcc.a(_udivdi3.o)
                              c:/program files/microchip/xc32/v2.50/bin/bin/../../lib/gcc/pic32mx/4.8.3/../../../../pic32mx/lib/fpu64\liblega-c.a(_doprnt_cdnopsuxX.eo) (__udivdi3)
c:/program files/microchip/xc32/v2.50/bin/bin/../../lib/gcc/pic32mx/4.8.3/fpu64\libgcc.a(_umoddi3.o)
                              c:/program files/microchip/xc32/v2.50/bin/bin/../../lib/gcc/pic32mx/4.8.3/../../../../pic32mx/lib/fpu64\liblega-c.a(_doprnt_cdnopsuxX.eo) (__umoddi3)
c:/program files/microchip/xc32/v2.50/bin/bin/../../lib/gcc/pic32mx/4.8.3/../../../../pic32mx/lib/fpu64\libpic32.a(sbrk.o)
                              c:/program files/microchip/xc32/v2.50/bin/bin/../../lib/gcc/pic32mx/4.8.3/../../../../pic32mx/lib/fpu64\liblega-c.a(malloc.o) (getpagesize)
c:/program files/microchip/xc32/v2.50/bin/bin/../../lib/gcc/pic32mx/4.8.3/../../../../pic32mx/lib/fpu64\libpic32.a(_exit.o)
                              c:/program files/microchip/xc32/v2.50/bin/bin/../../lib/gcc/pic32mx/4.8.3/../../../../pic32mx/lib/fpu64\liblega-c.a(fullexit.o) (_exit)
c:/program files/microchip/xc32/v2.50/bin/bin/../../lib/gcc/pic32mx/4.8.3/../../../../pic32mx/lib/fpu64\libpic32.a(isatty.o)
                              c:/program files/microchip/xc32/v2.50/bin/bin/../../lib/gcc/pic32mx/4.8.3/../../../../pic32mx/lib/fpu64\liblega-c.a(_ioinit.o) (isatty)
c:/program files/microchip/xc32/v2.50/bin/bin/../../lib/gcc/pic32mx/4.8.3/../../../../pic32mx/lib/fpu64\libpic32.a(_mon_getc.o)
                              c:/program files/microchip/xc32/v2.50/bin/bin/../../lib/gcc/pic32mx/4.8.3/../../../../pic32mx/lib/fpu64\liblega-c.a(_iobfuncs.o) (_mon_getc)
c:/program files/microchip/xc32/v2.50/bin/bin/../../lib/gcc/pic32mx/4.8.3/../../../../pic32mx/lib/fpu64\libpic32.a(_mon_write.o)
                              c:/program files/microchip/xc32/v2.50/bin/bin/../../lib/gcc/pic32mx/4.8.3/../../../../pic32mx/lib/fpu64\liblega-c.a(_iobfuncs.o) (_mon_write)
c:/program files/microchip/xc32/v2.50/bin/bin/../../lib/gcc/pic32mx/4.8.3/../../../../pic32mx/lib/fpu64\libpic32.a(xc32_uart.o)
                              c:/program files/microchip/xc32/v2.50/bin/bin/../../lib/gcc/pic32mx/4.8.3/../../../../pic32mx/lib/fpu64\libpic32.a(_mon_getc.o) (__XC_UART)

Allocating common symbols
Common symbol       size              file

m_gpio_r_mask       0x4               build/TEST/production/_ext/2070436302/mod_swspi.o
application_data    0x7a120           build/TEST/production/_ext/801483606/app.o
analog_inputs       0xb4              build/TEST/production/_ext/1509319821/adc.o
m_gpio_ck_mask      0x4               build/TEST/production/_ext/2070436302/mod_swspi.o
m_gpio_cs_port      0x4               build/TEST/production/_ext/2070436302/mod_swspi.o
m_gpio_w_port       0x4               build/TEST/production/_ext/2070436302/mod_swspi.o
app_result_count    0x4               build/TEST/production/_ext/801483606/app.o
m_gpio_ck_port      0x4               build/TEST/production/_ext/2070436302/mod_swspi.o
m_gpio_w_mask       0x4               build/TEST/production/_ext/2070436302/mod_swspi.o
clockMode           0x4               build/TEST/production/_ext/2070436302/scanchain.o
m_gpio_cs_mask      0x4               build/TEST/production/_ext/2070436302/mod_swspi.o
m_gpio_r_port       0x4               build/TEST/production/_ext/2070436302/mod_swspi.o

Microchip PIC32 Memory-Usage Report

kseg0 Program-Memory Usage
section                    address  length [bytes]      (dec)  Description
-------                 ----------  -------------------------  -----------
.simple_tlb_refill_excp 0x9d001000           0x10          16   
.text._mon_getc         0x9d001010           0xf0         240   
.cache_err_excpt        0x9d001100           0x10          16   
.text.ain_read          0x9d001110           0x70         112   
.app_excpt              0x9d001180           0x10          16  General-Exception 
.text.uart_enable       0x9d001190           0x70         112   
.vectors                0x9d001200           0x58          88   
.text.on_parameter_foun 0x9d001258         0x10b0        4272   
.rodata                 0x9d002308         0x1070        4208  Read-only const 
.text._fconvert         0x9d003378          0xc2c        3116   
.text.do_scan           0x9d003fa4          0xc0c        3084   
.dinit                  0x9d004bb0          0xbe0        3040   
.text.function_swspics  0x9d005790          0xbbc        3004   
.text.do_print          0x9d00634c          0xae8        2792   
.text._do_print_cdnopsu 0x9d006e34          0xa70        2672   
.text.unisequencer_exec 0x9d0078a4          0xa40        2624   
.rodata                 0x9d0082e4         0x11e4        4580  Read-only const 
.rodata                 0x9d0094c8         0x106c        4204  Read-only const 
.text.scanchain2_transf 0x9d00a534          0x80c        2060   
.text.malloc            0x9d00ad40          0x800        2048   
.text.pwm_set_duty      0x9d00b540          0x724        1828   
.text.gpio_enable       0x9d00bc64          0x714        1812   
.text.scanchain3_transf 0x9d00c378          0x5ac        1452   
.text.scanchan1_transfe 0x9d00c924          0x588        1416   
.text.realloc           0x9d00ceac          0x584        1412   
.text.signal1           0x9d00d430          0x560        1376   
.text                   0x9d00d990          0x4b4        1204  App's exec code 
.text.function_swspi    0x9d00de44          0x474        1140   
.text.mod_spi_transfer  0x9d00e2b8          0x464        1124   
.text                   0x9d00e71c          0x8bc        2236  App's exec code 
.text.systmrB_enable    0x9d00efd8          0x3f8        1016   
.text.intadc_read       0x9d00f3d0          0x3f4        1012   
.text.mod_spi_conf      0x9d00f7c4          0x3f0        1008   
.rodata                 0x9d00fbb4          0x3b4         948  Read-only const 
.text.strtoll           0x9d00ff68          0x388         904   
.text.systmrB_restart   0x9d0102f0          0x370         880   
.text.adc_init          0x9d010660          0x354         852   
.text.function_genclk   0x9d0109b4          0x340         832   
.text.PLANNER_Run       0x9d010cf4          0x334         820   
.text.CommunicationInte 0x9d011028          0x334         820   
.text.function_swspicon 0x9d01135c          0x320         800   
.text.scanchain3_read   0x9d01167c          0x320         800   
.text.scanchain3_write  0x9d01199c          0x320         800   
.text.strtoull          0x9d011cbc          0x30c         780   
.text.strtod            0x9d011fc8          0x2d8         728   
.text.parse_string      0x9d0122a0          0x2cc         716   
.text.pwm_init          0x9d01256c          0x2a8         680   
.text._strtostr         0x9d012814          0x284         644   
.text.cap_trig          0x9d012a98          0x280         640   
.text.strtoul           0x9d012d18          0x280         640   
.text.strtol            0x9d012f98          0x27c         636   
.text.free              0x9d013214          0x27c         636   
.text.relay_set         0x9d013490          0x238         568   
.text.scanchain_conf    0x9d0136c8          0x200         512   
.text.cap_conf          0x9d0138c8          0x200         512   
.text.StrToUInt         0x9d013ac8          0x1c4         452   
.text.systmrB_disable   0x9d013c8c          0x1b0         432   
.text.mod_refclk_conf   0x9d013e3c          0x19c         412   
.text._sbrk_init        0x9d013fd8          0x194         404   
.rodata                 0x9d01416c          0x190         400  Read-only const 
.text.unisequencer_conf 0x9d0142fc          0x18c         396   
.text.mod_pwm_conf      0x9d014488          0x18c         396   
.text.gpio_reg          0x9d014614          0x18c         396   
.text.uart_enable_rx_in 0x9d0147a0          0x170         368   
.text.dio_set           0x9d014910          0x16c         364   
.text.aout_conf         0x9d014a7c          0x168         360   
.text                   0x9d014be4          0x168         360  App's exec code 
.text.mod_pwm_set_freq  0x9d014d4c          0x164         356   
.text.SYSTEM_ReadUART   0x9d014eb0          0x164         356   
.text.spi_transfer      0x9d015014          0x158         344   
.text.unisequencer_resu 0x9d01516c          0x154         340   
.text.systmrB_set_perio 0x9d0152c0          0x150         336   
.text._outcnvrt         0x9d015410          0x278         632   
.text.SYSTEM_Initialize 0x9d015688          0x138         312   
.text.ascii_to_byte     0x9d0157c0          0x134         308   
.text.ungetc            0x9d0158f4          0x134         308   
.text.APP_function_run  0x9d015a28          0x128         296   
.text.gpio_set          0x9d015b50          0x128         296   
.rodata                 0x9d015c78          0x128         296  Read-only const 
.text.mod_pwm_enable    0x9d015da0          0x124         292   
.text                   0x9d015ec4          0x120         288  App's exec code 
.text.pwm_enable        0x9d015fe4          0x11c         284   
.text.systmrB_timeout   0x9d016100          0x118         280   
.text.rd_buffer_contain 0x9d016218          0x114         276   
.text._send_byte        0x9d01632c          0x110         272   
.text.rounded.isra.0    0x9d01643c          0x110         272   
.text.putget.2778       0x9d01654c          0x10c         268   
.text.PLANNER_Init      0x9d016658          0x108         264   
.rodata                 0x9d016760          0x104         260  Read-only const 
.text.malloc_trim       0x9d016864          0x104         260   
.text._flsbuf_simple    0x9d016968           0xfc         252   
.text._modfx            0x9d016a64           0xfc         252   
.text.scanchain2_result 0x9d016b60           0xf4         244   
.text.strchr            0x9d016c54           0xf4         244   
.text.split_text        0x9d016d48           0xec         236   
.text.ad5641_write      0x9d016e34           0xe4         228   
.rodata                 0x9d016f18           0xdc         220  Read-only const 
.text.general_exception 0x9d016ff4           0xdc         220   
.text.relay_get         0x9d0170d0           0xd8         216   
.text._cache_err_except 0x9d0171a8           0xd8         216   
.text.simple_tlb_refill 0x9d017280           0xd8         216   
.text.compare_string_n  0x9d017358           0xd4         212   
.rodata                 0x9d01742c           0xcc         204  Read-only const 
.text.uart_clear_rx_fla 0x9d0174f8           0xc8         200   
.text._sbrk             0x9d0175c0           0xc8         200   
.text.dio_conf          0x9d017688           0xbc         188   
.tlb.__pic32_tlb_init_e 0x9d017744           0xbc         188   
.text.intadc_result     0x9d017800           0xb8         184   
.text.gpio_toggle       0x9d0178b8           0xb8         184   
.text.gpio_get          0x9d017970           0xb4         180   
.text.mod_pwm_set_duty  0x9d017a24           0xb0         176   
.text.SYSTEM_MakeError  0x9d017ad4           0xb0         176   
.text.fputc             0x9d017b84           0xac         172   
.text.repl.constprop.0  0x9d017c30           0xac         172   
.text.rd_buffer_init    0x9d017cdc           0xa8         168   
.text.dio_set_direction 0x9d017d84           0x9c         156   
.text.bytes_from_hex    0x9d017e20           0x9c         156   
.text.repl              0x9d017ebc           0x9c         156   
.text._eat_white        0x9d017f58           0x9c         156   
.text._i_init           0x9d017ff4           0x98         152   
.text.cap_result        0x9d01808c           0x90         144   
.text.refclk_out_cfg    0x9d01811c           0x90         144   
.text.SYSTEM_CommInit   0x9d0181ac           0x90         144   
.text.compare_string    0x9d01823c           0x88         136   
.text.mod_spi_result    0x9d0182c4           0x84         132   
.text.function_swspi_re 0x9d018348           0x84         132   
.text                   0x9d0183cc           0x84         132  App's exec code 
.text.dio_get           0x9d018450           0x80         128   
.rodata                 0x9d0184d0           0x80         128  Read-only const 
.text._fflush_simple    0x9d018550           0x80         128   
.text._fwrite_simple    0x9d0185d0           0x80         128   
.text.BOARD_Initialize  0x9d018650           0x7c         124   
.text.mod_spi_off       0x9d0186cc           0x78         120   
.text.scanchain1_result 0x9d018744           0x78         120   
.rodata                 0x9d0187bc           0x78         120  Read-only const 
.text.gpio_set_dir      0x9d018834           0x78         120   
.text.fgetc             0x9d0188ac           0x78         120   
.text.add_bit           0x9d018924           0x74         116   
.text.main              0x9d018998           0x74         116   
.text._sscanf_cdnopuxX  0x9d018a0c           0x74         116   
.text.findpos           0x9d018a80           0x70         112   
.text._sprintf_cdnopsux 0x9d018af0           0x6c         108   
.text.dio_init          0x9d018b5c           0x68         104   
.text.SYSTEM_WriteUART  0x9d018bc4           0x68         104   
.text.__sputn           0x9d018c2c           0x68         104   
.text.memmove           0x9d018c94           0x68         104   
.text._bufalloc         0x9d018cfc           0x68         104   
.text.relay_conf        0x9d018d64           0x64         100   
.text.gsgetc            0x9d018dc8           0x64         100   
.rodata                 0x9d018e2c           0x60          96  Read-only const 
.text.uart_getc         0x9d018e8c           0x60          96   
.text.SYSTEM_delay_ms   0x9d018eec           0x60          96   
.text.mod_spi_set_speed 0x9d018f4c           0x5c          92   
.text.softwareReset     0x9d018fa8           0x5c          92   
.text.copy_text         0x9d019004           0x5c          92   
.text.rd_buffer_put     0x9d019060           0x58          88   
.text.fputs             0x9d0190b8           0x58          88   
.text.APP_Run           0x9d019110           0x54          84   
.text.main_entry        0x9d019164           0x54          84   
.text.systmrA_enable    0x9d0191b8           0x50          80   
.text.sbrk              0x9d019208           0x50          80   
.text.mod_pwm_is_enable 0x9d019258           0x4c          76   
.text.APP_Initialize    0x9d0192a4           0x4c          76   
.text.adc_read          0x9d0192f0           0x4c          76   
.text.puts              0x9d01933c           0x4c          76   
.text._mon_write        0x9d019388           0x4c          76   
.text.spi_enable        0x9d0193d4           0x48          72   
.text._bootstrap_except 0x9d01941c           0x48          72   
.text._cache_err_except 0x9d019464           0x48          72   
.text._simple_tlb_refil 0x9d0194ac           0x48          72   
.text.aout_set          0x9d0194f4           0x44          68   
.text.SYSTEM_Activity   0x9d019538           0x44          68   
.text                   0x9d01957c           0x44          68  App's exec code 
.rodata                 0x9d0195c0           0x40          64  Read-only const 
.text.spi_set_clock     0x9d019600           0x40          64   
.text.rd_buffer_get     0x9d019640           0x40          64   
.text._general_exceptio 0x9d019680           0x40          64   
.text.debug_putc        0x9d0196c0           0x40          64   
.text._printf_cdnopsuxX 0x9d019700           0x40          64   
.text.printf            0x9d019740           0x40          64   
.rodata                 0x9d019780           0x40          64  Read-only const 
.text.ain_conf          0x9d0197c0           0x3c          60   
.rodata                 0x9d0197fc           0x3c          60  Read-only const 
.text.uart_putc         0x9d019838           0x3c          60   
.rodata                 0x9d019874           0x70         112  Read-only const 
.text.chrono_init       0x9d0198e4           0x34          52   
.text.APP_print_inf     0x9d019918           0x34          52   
.text.spi_disable       0x9d01994c           0x34          52   
.text.systmrA_interrupt 0x9d019980           0x34          52   
.text._filbuf_simple    0x9d0199b4           0x34          52   
.text.aout_value        0x9d0199e8           0x30          48   
.text._fsync_simple     0x9d019a18           0x30          48   
.rodata                 0x9d019a48           0x30          48  Read-only const 
.text.memcpy            0x9d019a78           0x2c          44   
.text._stub_sbd_memlayo 0x9d019aa4           0x2c          44   
.text.dio_get_direction 0x9d019ad0           0x28          40   
.text.adc_trigger_measu 0x9d019af8           0x28          40   
.text.uart_data_availab 0x9d019b20           0x28          40   
.rodata                 0x9d019b48           0x28          40  Read-only const 
.text.memset            0x9d019b70           0x28          40   
.text.mod_refclk_enable 0x9d019b98           0x24          36   
.text.refclk_out_enable 0x9d019bbc           0x24          36   
.text.rd_buffer_cnt     0x9d019be0           0x24          36   
.text.SYSTEM_delay_init 0x9d019c04           0x24          36   
.text._mon_putc         0x9d019c28           0x24          36   
.text.SYSTEM_SetBaudRat 0x9d019c4c           0x24          36   
.text.putchar           0x9d019c70           0x24          36   
.text.strtof            0x9d019c94           0x20          32   
.rodata                 0x9d019cb4           0x18          24  Read-only const 
.text.INT_SetMultivecto 0x9d019ccc           0x18          24   
.text.systmrA_clear_fla 0x9d019ce4           0x18          24   
.text.uart_txline_busy  0x9d019cfc           0x18          24   
.text.clearWdt          0x9d019d14           0x18          24   
.rodata                 0x9d019d2c            0x4           4  Read-only const 
.rodata                 0x9d019d30           0x18          24  Read-only const 
.text                   0x9d019d48           0x18          24  App's exec code 
.rodata                 0x9d019d60           0x28          40  Read-only const 
.rodata                 0x9d019d88           0x10          16  Read-only const 
.text.APP_Break         0x9d019d98           0x10          16   
.text.rd_buffer_first   0x9d019da8           0x10          16   
.rodata                 0x9d019db8           0x1c          28  Read-only const 
.text.rd_buffer_reset   0x9d019dd4            0xc          12   
.text.syntax_parameter_ 0x9d019de0            0xc          12   
.rodata                 0x9d019dec            0xc          12  Read-only const 
.text.SYSTEM_ErrorCount 0x9d019df8            0x8           8   
.text._on_reset         0x9d019e00            0x8           8   
.text._on_bootstrap     0x9d019e08            0x8           8   
.text._filbuf_string    0x9d019e10            0x8           8   
.text._flsbuf_string    0x9d019e18            0x8           8   
.text._fflush_string    0x9d019e20            0x8           8   
.text._fwrite_string    0x9d019e28            0x8           8   
.text._fsync_string     0x9d019e30            0x8           8   
.text.getpagesize       0x9d019e38            0x8           8   
.text.isatty            0x9d019e40            0x8           8   
      Total kseg0_program_mem used  :     0x18e48      101960  19.6% of 0x7f000

kseg0 Boot-Memory Usage
section                    address  length [bytes]      (dec)  Description
-------                 ----------  -------------------------  -----------
         Total kseg0_boot_mem used  :           0           0  

kseg1 Boot-Memory Usage
section                    address  length [bytes]      (dec)  Description
-------                 ----------  -------------------------  -----------
.reset                  0x9d000000          0x1b4         436  Reset handler 
         Total kseg1_boot_mem used  :       0x1b4         436  37.8% of 0x480
        --------------------------------------------------------------------------
         Total Program Memory used  :     0x18ffc      102396  19.6% of 0x7f480
        --------------------------------------------------------------------------


kseg0 Data-Memory Usage
section                    address  length [bytes]      (dec)  Description
-------                 ----------  -------------------------  -----------
.sdata                  0x80000000           0x2c          44  Small init data 
.sbss                   0x8000002c          0x114         276  Small uninit data 
.bss                    0x80000140        0x7a1d4      500180  Uninitialized data 
.bss                    0x8007a314         0x1b78        7032  Uninitialized data 
.bss                    0x8007be8c         0x10a0        4256  Uninitialized data 
.bss                    0x8007cf2c          0x660        1632  Uninitialized data 
.data                   0x8007d58c          0x410        1040  Initialized data 
.bss                    0x8007d99c          0x7d0        2000  Uninitialized data 
.bss                    0x8007e16c          0x7d0        2000  Uninitialized data 
.bss                    0x8007e93c          0x2f8         760  Uninitialized data 
.data                   0x8007ec34          0x138         312  Initialized data 
.bss                    0x8007ed6c           0xdc         220  Uninitialized data 
.data                   0x8007ee48           0xd4         212  Initialized data 
.bss                    0x8007ef1c           0xd8         216  Uninitialized data 
.bss                    0x8007eff4           0x70         112  Uninitialized data 
.bss                    0x8007f064           0x34          52  Uninitialized data 
.data                   0x8007f098           0x28          40  Initialized data 
.bss                    0x8007f0c0           0x48          72  Uninitialized data 
         Total kseg0_data_mem used  :     0x7f108      520456  99.3% of 0x80000
        --------------------------------------------------------------------------
            Total Data Memory used  :     0x7f108      520456  99.3% of 0x80000
        --------------------------------------------------------------------------


Dynamic Data-Memory Reservation
section                    address  length [bytes]      (dec)  Description
-------                 ----------  -------------------------  -----------
heap                    0x8007f110              0           0  Reserved for heap 
stack                   0x8007f128          0xed0        3792  Reserved for stack 

        --------------------------------------------------------------------------

Discarded input sections

 .text          0x00000000        0x0 c:/program files/microchip/xc32/v2.50/bin/bin/../../lib/gcc/pic32mx/4.8.3/../../../../pic32mx/lib/fpu64\debug-exception-return.o
 .data          0x00000000        0x0 c:/program files/microchip/xc32/v2.50/bin/bin/../../lib/gcc/pic32mx/4.8.3/../../../../pic32mx/lib/fpu64\debug-exception-return.o
 .bss           0x00000000        0x0 c:/program files/microchip/xc32/v2.50/bin/bin/../../lib/gcc/pic32mx/4.8.3/../../../../pic32mx/lib/fpu64\debug-exception-return.o
 .text          0x00000000        0x0 build/TEST/production/_ext/744274812/chrono.o
 .data          0x00000000        0x0 build/TEST/production/_ext/744274812/chrono.o
 .bss           0x00000000        0x0 build/TEST/production/_ext/744274812/chrono.o
 .reginfo       0x00000000       0x18 build/TEST/production/_ext/744274812/chrono.o
 .text          0x00000000        0x0 build/TEST/production/_ext/816358189/ad5641.o
 .data          0x00000000        0x0 build/TEST/production/_ext/816358189/ad5641.o
 .bss           0x00000000        0x0 build/TEST/production/_ext/816358189/ad5641.o
 .reginfo       0x00000000       0x18 build/TEST/production/_ext/816358189/ad5641.o
 .text          0x00000000        0x0 build/TEST/production/_ext/2070436302/dio.o
 .data          0x00000000        0x0 build/TEST/production/_ext/2070436302/dio.o
 .reginfo       0x00000000       0x18 build/TEST/production/_ext/2070436302/dio.o
 .text.dio_get_output
                0x00000000       0x40 build/TEST/production/_ext/2070436302/dio.o
 .text          0x00000000        0x0 build/TEST/production/_ext/2070436302/genclk.o
 .data          0x00000000        0x0 build/TEST/production/_ext/2070436302/genclk.o
 .reginfo       0x00000000       0x18 build/TEST/production/_ext/2070436302/genclk.o
 .text          0x00000000        0x0 build/TEST/production/_ext/2070436302/relay.o
 .data          0x00000000        0x0 build/TEST/production/_ext/2070436302/relay.o
 .bss           0x00000000        0x0 build/TEST/production/_ext/2070436302/relay.o
 .reginfo       0x00000000       0x18 build/TEST/production/_ext/2070436302/relay.o
 .text          0x00000000        0x0 build/TEST/production/_ext/2070436302/unisequencer.o
 .data          0x00000000        0x0 build/TEST/production/_ext/2070436302/unisequencer.o
 .reginfo       0x00000000       0x18 build/TEST/production/_ext/2070436302/unisequencer.o
 .text          0x00000000        0x0 build/TEST/production/_ext/2070436302/mod_pwm.o
 .data          0x00000000        0x0 build/TEST/production/_ext/2070436302/mod_pwm.o
 .reginfo       0x00000000       0x18 build/TEST/production/_ext/2070436302/mod_pwm.o
 .text          0x00000000        0x0 build/TEST/production/_ext/2070436302/mod_spi.o
 .reginfo       0x00000000       0x18 build/TEST/production/_ext/2070436302/mod_spi.o
 .text.mode_spi_set_cs
                0x00000000       0x78 build/TEST/production/_ext/2070436302/mod_spi.o
 .text          0x00000000        0x0 build/TEST/production/_ext/2070436302/mod_swspi.o
 .data          0x00000000        0x0 build/TEST/production/_ext/2070436302/mod_swspi.o
 .reginfo       0x00000000       0x18 build/TEST/production/_ext/2070436302/mod_swspi.o
 .text          0x00000000        0x0 build/TEST/production/_ext/2070436302/mod_i2c.o
 .data          0x00000000        0x0 build/TEST/production/_ext/2070436302/mod_i2c.o
 .bss           0x00000000        0x0 build/TEST/production/_ext/2070436302/mod_i2c.o
 .reginfo       0x00000000       0x18 build/TEST/production/_ext/2070436302/mod_i2c.o
 .text.mod_i2c_conf
                0x00000000        0x8 build/TEST/production/_ext/2070436302/mod_i2c.o
 .text.mod_i2c_speed
                0x00000000        0x8 build/TEST/production/_ext/2070436302/mod_i2c.o
 .text.mod_i2c_readwrite_data
                0x00000000        0x8 build/TEST/production/_ext/2070436302/mod_i2c.o
 .text.mod_i2c_write_data
                0x00000000        0x8 build/TEST/production/_ext/2070436302/mod_i2c.o
 .text.mod_i2c_read_data
                0x00000000        0x8 build/TEST/production/_ext/2070436302/mod_i2c.o
 .text          0x00000000        0x0 build/TEST/production/_ext/2070436302/aout.o
 .bss           0x00000000        0x0 build/TEST/production/_ext/2070436302/aout.o
 .reginfo       0x00000000       0x18 build/TEST/production/_ext/2070436302/aout.o
 .text          0x00000000        0x0 build/TEST/production/_ext/2070436302/ain.o
 .data          0x00000000        0x0 build/TEST/production/_ext/2070436302/ain.o
 .bss           0x00000000        0x0 build/TEST/production/_ext/2070436302/ain.o
 .reginfo       0x00000000       0x18 build/TEST/production/_ext/2070436302/ain.o
 .text          0x00000000        0x0 build/TEST/production/_ext/2070436302/scanchain.o
 .data          0x00000000        0x0 build/TEST/production/_ext/2070436302/scanchain.o
 .reginfo       0x00000000       0x18 build/TEST/production/_ext/2070436302/scanchain.o
 .text.scanchain3_result
                0x00000000      0x144 build/TEST/production/_ext/2070436302/scanchain.o
 .text          0x00000000        0x0 build/TEST/production/_ext/2070436302/intadc.o
 .data          0x00000000        0x0 build/TEST/production/_ext/2070436302/intadc.o
 .reginfo       0x00000000       0x18 build/TEST/production/_ext/2070436302/intadc.o
 .text          0x00000000        0x0 build/TEST/production/_ext/2070436302/mod_refclk.o
 .data          0x00000000        0x0 build/TEST/production/_ext/2070436302/mod_refclk.o
 .reginfo       0x00000000       0x18 build/TEST/production/_ext/2070436302/mod_refclk.o
 .text          0x00000000        0x0 build/TEST/production/_ext/2070436302/cap.o
 .data          0x00000000        0x0 build/TEST/production/_ext/2070436302/cap.o
 .reginfo       0x00000000       0x18 build/TEST/production/_ext/2070436302/cap.o
 .text          0x00000000        0x0 build/TEST/production/_ext/801483606/app.o
 .data          0x00000000        0x0 build/TEST/production/_ext/801483606/app.o
 .reginfo       0x00000000       0x18 build/TEST/production/_ext/801483606/app.o
 .text.add_function_to_loop
                0x00000000       0x8c build/TEST/production/_ext/801483606/app.o
 .text.function_in_loop
                0x00000000       0x58 build/TEST/production/_ext/801483606/app.o
 .text.remove_function_from_loop
                0x00000000       0x94 build/TEST/production/_ext/801483606/app.o
 .text.kick_function_timers
                0x00000000       0x60 build/TEST/production/_ext/801483606/app.o
 .text          0x00000000        0x0 build/TEST/production/_ext/801483606/on_parameter_found.o
 .data          0x00000000        0x0 build/TEST/production/_ext/801483606/on_parameter_found.o
 .bss           0x00000000        0x0 build/TEST/production/_ext/801483606/on_parameter_found.o
 .reginfo       0x00000000       0x18 build/TEST/production/_ext/801483606/on_parameter_found.o
 .text          0x00000000        0x0 build/TEST/production/_ext/1537666708/board.o
 .data          0x00000000        0x0 build/TEST/production/_ext/1537666708/board.o
 .bss           0x00000000        0x0 build/TEST/production/_ext/1537666708/board.o
 .reginfo       0x00000000       0x18 build/TEST/production/_ext/1537666708/board.o
 .text          0x00000000        0x0 build/TEST/production/_ext/1509319821/adc.o
 .data          0x00000000        0x0 build/TEST/production/_ext/1509319821/adc.o
 .bss           0x00000000        0x0 build/TEST/production/_ext/1509319821/adc.o
 .reginfo       0x00000000       0x18 build/TEST/production/_ext/1509319821/adc.o
 .text.adc_configure_interrupt
                0x00000000        0x8 build/TEST/production/_ext/1509319821/adc.o
 .text.adc_result_available
                0x00000000       0x54 build/TEST/production/_ext/1509319821/adc.o
 .text          0x00000000        0x0 build/TEST/production/_ext/1509317981/can.o
 .data          0x00000000        0x0 build/TEST/production/_ext/1509317981/can.o
 .bss           0x00000000        0x0 build/TEST/production/_ext/1509317981/can.o
 .reginfo       0x00000000       0x18 build/TEST/production/_ext/1509317981/can.o
 .text          0x00000000        0x0 build/TEST/production/_ext/455916380/gpio.o
 .data          0x00000000        0x0 build/TEST/production/_ext/455916380/gpio.o
 .bss           0x00000000        0x0 build/TEST/production/_ext/455916380/gpio.o
 .reginfo       0x00000000       0x18 build/TEST/production/_ext/455916380/gpio.o
 .text.gpio_valid
                0x00000000       0x14 build/TEST/production/_ext/455916380/gpio.o
 .text.gpio_direction
                0x00000000       0x3c build/TEST/production/_ext/455916380/gpio.o
 .text          0x00000000        0x0 build/TEST/production/_ext/1509311806/int.o
 .data          0x00000000        0x0 build/TEST/production/_ext/1509311806/int.o
 .bss           0x00000000        0x0 build/TEST/production/_ext/1509311806/int.o
 .reginfo       0x00000000       0x18 build/TEST/production/_ext/1509311806/int.o
 .text.INT_SetSingleVectoredMode
                0x00000000       0x18 build/TEST/production/_ext/1509311806/int.o
 .text          0x00000000        0x0 build/TEST/production/_ext/1255152928/nvm.o
 .data          0x00000000        0x0 build/TEST/production/_ext/1255152928/nvm.o
 .bss           0x00000000        0x0 build/TEST/production/_ext/1255152928/nvm.o
 .reginfo       0x00000000       0x18 build/TEST/production/_ext/1255152928/nvm.o
 .text.delay    0x00000000       0x58 build/TEST/production/_ext/1255152928/nvm.o
 .text.nvm_unlock_bootmem
                0x00000000       0x44 build/TEST/production/_ext/1255152928/nvm.o
 .text.nvm_lock_bootmem
                0x00000000       0x48 build/TEST/production/_ext/1255152928/nvm.o
 .text.nvm_operation_result
                0x00000000       0x30 build/TEST/production/_ext/1255152928/nvm.o
 .text.nvm_operation
                0x00000000       0x9c build/TEST/production/_ext/1255152928/nvm.o
 .text.nvm_write_word
                0x00000000       0x68 build/TEST/production/_ext/1255152928/nvm.o
 .text.nvm_write_row
                0x00000000       0x34 build/TEST/production/_ext/1255152928/nvm.o
 .text.nvm_write_page
                0x00000000       0x78 build/TEST/production/_ext/1255152928/nvm.o
 .text.nvm_clear_error
                0x00000000       0x1c build/TEST/production/_ext/1255152928/nvm.o
 .text.nvm_erase_page
                0x00000000       0x38 build/TEST/production/_ext/1255152928/nvm.o
 .text          0x00000000        0x0 build/TEST/production/_ext/1509304807/pwm.o
 .data          0x00000000        0x0 build/TEST/production/_ext/1509304807/pwm.o
 .bss           0x00000000        0x0 build/TEST/production/_ext/1509304807/pwm.o
 .reginfo       0x00000000       0x18 build/TEST/production/_ext/1509304807/pwm.o
 .text          0x00000000        0x0 build/TEST/production/_ext/353641468/refclk.o
 .data          0x00000000        0x0 build/TEST/production/_ext/353641468/refclk.o
 .bss           0x00000000        0x0 build/TEST/production/_ext/353641468/refclk.o
 .reginfo       0x00000000       0x18 build/TEST/production/_ext/353641468/refclk.o
 .text          0x00000000        0x0 build/TEST/production/_ext/1509302145/spi.o
 .data          0x00000000        0x0 build/TEST/production/_ext/1509302145/spi.o
 .bss           0x00000000        0x0 build/TEST/production/_ext/1509302145/spi.o
 .reginfo       0x00000000       0x18 build/TEST/production/_ext/1509302145/spi.o
 .text.spi_set_baud
                0x00000000       0x24 build/TEST/production/_ext/1509302145/spi.o
 .text.spi_transfer_complete
                0x00000000       0x34 build/TEST/production/_ext/1509302145/spi.o
 .text.spi_busy
                0x00000000       0x18 build/TEST/production/_ext/1509302145/spi.o
 .text.spi_error
                0x00000000       0x30 build/TEST/production/_ext/1509302145/spi.o
 .text.spi_reset
                0x00000000       0x24 build/TEST/production/_ext/1509302145/spi.o
 .text          0x00000000        0x0 build/TEST/production/_ext/1509302145/swspi.o
 .data          0x00000000        0x0 build/TEST/production/_ext/1509302145/swspi.o
 .bss           0x00000000        0x0 build/TEST/production/_ext/1509302145/swspi.o
 .reginfo       0x00000000       0x18 build/TEST/production/_ext/1509302145/swspi.o
 .text          0x00000000        0x0 build/TEST/production/_ext/401144697/systmr.o
 .data          0x00000000        0x0 build/TEST/production/_ext/401144697/systmr.o
 .bss           0x00000000        0x0 build/TEST/production/_ext/401144697/systmr.o
 .reginfo       0x00000000       0x18 build/TEST/production/_ext/401144697/systmr.o
 .text.systmrA_interrupt_disable
                0x00000000       0x38 build/TEST/production/_ext/401144697/systmr.o
 .text.systmrA_disable
                0x00000000       0x10 build/TEST/production/_ext/401144697/systmr.o
 .text.systmrB_freq
                0x00000000      0x460 build/TEST/production/_ext/401144697/systmr.o
 .text.systmrB_enableInterrupt
                0x00000000      0x294 build/TEST/production/_ext/401144697/systmr.o
 .text.systmrB_elapsed
                0x00000000      0x158 build/TEST/production/_ext/401144697/systmr.o
 .text          0x00000000        0x0 build/TEST/production/_ext/1261517080/usart.o
 .data          0x00000000        0x0 build/TEST/production/_ext/1261517080/usart.o
 .bss           0x00000000        0x0 build/TEST/production/_ext/1261517080/usart.o
 .reginfo       0x00000000       0x18 build/TEST/production/_ext/1261517080/usart.o
 .text.uart_reset
                0x00000000       0x70 build/TEST/production/_ext/1261517080/usart.o
 .text.uart_rxline_error
                0x00000000       0x1c build/TEST/production/_ext/1261517080/usart.o
 .text.uart_flush
                0x00000000       0x80 build/TEST/production/_ext/1261517080/usart.o
 .text.uart_txline_empty
                0x00000000       0x18 build/TEST/production/_ext/1261517080/usart.o
 .text.uart_configure
                0x00000000       0x60 build/TEST/production/_ext/1261517080/usart.o
 .text.uart_put_data
                0x00000000       0x18 build/TEST/production/_ext/1261517080/usart.o
 .text.uart_puts
                0x00000000       0x58 build/TEST/production/_ext/1261517080/usart.o
 .text.uart_enable_tx_interrupt
                0x00000000      0x170 build/TEST/production/_ext/1261517080/usart.o
 .text.uart_disable_tx_interrupt
                0x00000000       0x24 build/TEST/production/_ext/1261517080/usart.o
 .text.uart_disable_rx_interrupt
                0x00000000       0x24 build/TEST/production/_ext/1261517080/usart.o
 .text.uart_clear_tx_flag
                0x00000000       0xc8 build/TEST/production/_ext/1261517080/usart.o
 .text          0x00000000        0x0 build/TEST/production/_ext/1509298662/wdt.o
 .data          0x00000000        0x0 build/TEST/production/_ext/1509298662/wdt.o
 .bss           0x00000000        0x0 build/TEST/production/_ext/1509298662/wdt.o
 .reginfo       0x00000000       0x18 build/TEST/production/_ext/1509298662/wdt.o
 .text          0x00000000        0x0 build/TEST/production/_ext/210424401/rd_buffer.o
 .data          0x00000000        0x0 build/TEST/production/_ext/210424401/rd_buffer.o
 .bss           0x00000000        0x0 build/TEST/production/_ext/210424401/rd_buffer.o
 .reginfo       0x00000000       0x18 build/TEST/production/_ext/210424401/rd_buffer.o
 .text.rd_buffer_is_empty
                0x00000000       0x20 build/TEST/production/_ext/210424401/rd_buffer.o
 .text.rd_buffer_is_full
                0x00000000       0x30 build/TEST/production/_ext/210424401/rd_buffer.o
 .text          0x00000000        0x0 build/TEST/production/_ext/210424401/parser.o
 .data          0x00000000        0x0 build/TEST/production/_ext/210424401/parser.o
 .reginfo       0x00000000       0x18 build/TEST/production/_ext/210424401/parser.o
 .text.syntax_init
                0x00000000        0x8 build/TEST/production/_ext/210424401/parser.o
 .text          0x00000000        0x0 build/TEST/production/_ext/210424401/string_utils.o
 .data          0x00000000        0x0 build/TEST/production/_ext/210424401/string_utils.o
 .bss           0x00000000        0x0 build/TEST/production/_ext/210424401/string_utils.o
 .reginfo       0x00000000       0x18 build/TEST/production/_ext/210424401/string_utils.o
 .text.rm_symbol_from_text
                0x00000000       0x78 build/TEST/production/_ext/210424401/string_utils.o
 .text.split_text2
                0x00000000       0xe0 build/TEST/production/_ext/210424401/string_utils.o
 .text.to_lower_case
                0x00000000       0x50 build/TEST/production/_ext/210424401/string_utils.o
 .text.to_upper_case
                0x00000000       0x50 build/TEST/production/_ext/210424401/string_utils.o
 .text.byte_to_ascii
                0x00000000       0x34 build/TEST/production/_ext/210424401/string_utils.o
 .rodata        0x00000000        0x8 build/TEST/production/_ext/210424401/string_utils.o
 .text.bytes_to_hex
                0x00000000       0x70 build/TEST/production/_ext/210424401/string_utils.o
 .text          0x00000000        0x0 build/TEST/production/_ext/783894060/planner.o
 .data          0x00000000        0x0 build/TEST/production/_ext/783894060/planner.o
 .reginfo       0x00000000       0x18 build/TEST/production/_ext/783894060/planner.o
 .text.PLANNER_closestTask
                0x00000000        0x8 build/TEST/production/_ext/783894060/planner.o
 .text.PLANNER_hasTask
                0x00000000       0x68 build/TEST/production/_ext/783894060/planner.o
 .text.PLANNER_AddTask
                0x00000000       0x84 build/TEST/production/_ext/783894060/planner.o
 .text.PLANNER_DeleteTask
                0x00000000       0xa0 build/TEST/production/_ext/783894060/planner.o
 .text.PLANNER_SetTaskData
                0x00000000       0x58 build/TEST/production/_ext/783894060/planner.o
 .text.PLANNER_DispatchTask
                0x00000000       0xbc build/TEST/production/_ext/783894060/planner.o
 .text.PLANNER_RestartTask
                0x00000000       0x3c build/TEST/production/_ext/783894060/planner.o
 .text.PLANNER_SuspendTask
                0x00000000       0x40 build/TEST/production/_ext/783894060/planner.o
 .text          0x00000000        0x0 build/TEST/production/_ext/73441385/system_exceptions.o
 .data          0x00000000        0x0 build/TEST/production/_ext/73441385/system_exceptions.o
 .bss           0x00000000        0x0 build/TEST/production/_ext/73441385/system_exceptions.o
 .reginfo       0x00000000       0x18 build/TEST/production/_ext/73441385/system_exceptions.o
 .text          0x00000000        0x0 build/TEST/production/_ext/73441385/system_init.o
 .data          0x00000000        0x0 build/TEST/production/_ext/73441385/system_init.o
 .bss           0x00000000        0x0 build/TEST/production/_ext/73441385/system_init.o
 .reginfo       0x00000000       0x18 build/TEST/production/_ext/73441385/system_init.o
 .text          0x00000000        0x0 build/TEST/production/_ext/73441385/system_dbg.o
 .data          0x00000000        0x0 build/TEST/production/_ext/73441385/system_dbg.o
 .bss           0x00000000        0x0 build/TEST/production/_ext/73441385/system_dbg.o
 .reginfo       0x00000000       0x18 build/TEST/production/_ext/73441385/system_dbg.o
 .text          0x00000000        0x0 build/TEST/production/_ext/73441385/system_time.o
 .data          0x00000000        0x0 build/TEST/production/_ext/73441385/system_time.o
 .bss           0x00000000        0x0 build/TEST/production/_ext/73441385/system_time.o
 .reginfo       0x00000000       0x18 build/TEST/production/_ext/73441385/system_time.o
 .text.SYSTEM_timer_start
                0x00000000       0x54 build/TEST/production/_ext/73441385/system_time.o
 .text.SYSTEM_timer_timeout
                0x00000000       0x1c build/TEST/production/_ext/73441385/system_time.o
 .text.SYSTEM_timer_elapsed
                0x00000000       0x30 build/TEST/production/_ext/73441385/system_time.o
 .text.SYSTEM_delay_us
                0x00000000       0x54 build/TEST/production/_ext/73441385/system_time.o
 .text          0x00000000        0x0 build/TEST/production/_ext/73441385/system_config.o
 .data          0x00000000        0x0 build/TEST/production/_ext/73441385/system_config.o
 .bss           0x00000000        0x0 build/TEST/production/_ext/73441385/system_config.o
 .reginfo       0x00000000       0x18 build/TEST/production/_ext/73441385/system_config.o
 .text          0x00000000        0x0 build/TEST/production/_ext/73441385/system_comm.o
 .data          0x00000000        0x0 build/TEST/production/_ext/73441385/system_comm.o
 .reginfo       0x00000000       0x18 build/TEST/production/_ext/73441385/system_comm.o
 .text          0x00000000        0x0 build/TEST/production/_ext/73441385/system_error.o
 .data          0x00000000        0x0 build/TEST/production/_ext/73441385/system_error.o
 .reginfo       0x00000000       0x18 build/TEST/production/_ext/73441385/system_error.o
 .text.SYSTEM_ClearErrors
                0x00000000       0x24 build/TEST/production/_ext/73441385/system_error.o
 .text.SYS_AssignHandler
                0x00000000       0x28 build/TEST/production/_ext/73441385/system_error.o
 .text          0x00000000        0x0 build/TEST/production/_ext/73441385/crc.o
 .data          0x00000000        0x0 build/TEST/production/_ext/73441385/crc.o
 .bss           0x00000000        0x0 build/TEST/production/_ext/73441385/crc.o
 .reginfo       0x00000000       0x18 build/TEST/production/_ext/73441385/crc.o
 .text.crc8     0x00000000       0x48 build/TEST/production/_ext/73441385/crc.o
 .text          0x00000000        0x0 build/TEST/production/_ext/1360937237/main.o
 .data          0x00000000        0x0 build/TEST/production/_ext/1360937237/main.o
 .bss           0x00000000        0x0 build/TEST/production/_ext/1360937237/main.o
 .reginfo       0x00000000       0x18 build/TEST/production/_ext/1360937237/main.o
 .text          0x00000000        0x0 c:/program files/microchip/xc32/v2.50/bin/bin/../../lib/gcc/pic32mx/4.8.3/../../../../pic32mx/lib/./proc/32MZ1024EFH100\processor.o
 .data          0x00000000        0x0 c:/program files/microchip/xc32/v2.50/bin/bin/../../lib/gcc/pic32mx/4.8.3/../../../../pic32mx/lib/./proc/32MZ1024EFH100\processor.o
 .bss           0x00000000        0x0 c:/program files/microchip/xc32/v2.50/bin/bin/../../lib/gcc/pic32mx/4.8.3/../../../../pic32mx/lib/./proc/32MZ1024EFH100\processor.o
 .reginfo       0x00000000       0x18 c:/program files/microchip/xc32/v2.50/bin/bin/../../lib/gcc/pic32mx/4.8.3/../../../../pic32mx/lib/./proc/32MZ1024EFH100\processor.o
 .text          0x00000000        0x0 c:/program files/microchip/xc32/v2.50/bin/bin/../../lib/gcc/pic32mx/4.8.3/../../../../pic32mx/lib/./proc/32MZ1024EFH100\vector_offset_init.o
 .data          0x00000000        0x0 c:/program files/microchip/xc32/v2.50/bin/bin/../../lib/gcc/pic32mx/4.8.3/../../../../pic32mx/lib/./proc/32MZ1024EFH100\vector_offset_init.o
 .bss           0x00000000        0x0 c:/program files/microchip/xc32/v2.50/bin/bin/../../lib/gcc/pic32mx/4.8.3/../../../../pic32mx/lib/./proc/32MZ1024EFH100\vector_offset_init.o
 .reginfo       0x00000000       0x18 c:/program files/microchip/xc32/v2.50/bin/bin/../../lib/gcc/pic32mx/4.8.3/../../../../pic32mx/lib/./proc/32MZ1024EFH100\vector_offset_init.o
 .text          0x00000000        0x0 C:\Users\fg67bz\AppData\Local\Temp\ccOypprZ.o
 .data          0x00000000        0x0 C:\Users\fg67bz\AppData\Local\Temp\ccOypprZ.o
 .bss           0x00000000        0x0 C:\Users\fg67bz\AppData\Local\Temp\ccOypprZ.o
 .reginfo       0x00000000       0x18 C:\Users\fg67bz\AppData\Local\Temp\ccOypprZ.o
 .text          0x00000000        0x0 C:\Users\fg67bz\AppData\Local\Temp\ccYcj41W.o
 .data          0x00000000        0x0 C:\Users\fg67bz\AppData\Local\Temp\ccYcj41W.o
 .bss           0x00000000        0x0 C:\Users\fg67bz\AppData\Local\Temp\ccYcj41W.o
 .reginfo       0x00000000       0x18 C:\Users\fg67bz\AppData\Local\Temp\ccYcj41W.o
 .text          0x00000000        0x0 C:\Users\fg67bz\AppData\Local\Temp\cctZhIA8.o
 .data          0x00000000        0x0 C:\Users\fg67bz\AppData\Local\Temp\cctZhIA8.o
 .bss           0x00000000        0x0 C:\Users\fg67bz\AppData\Local\Temp\cctZhIA8.o
 .reginfo       0x00000000       0x18 C:\Users\fg67bz\AppData\Local\Temp\cctZhIA8.o
 .discard       0x00000000        0x4 C:\Users\fg67bz\AppData\Local\Temp\cctZhIA8.o
 .text          0x00000000        0x0 c:/program files/microchip/xc32/v2.50/bin/bin/../../lib/gcc/pic32mx/4.8.3/../../../../pic32mx/lib/./proc/32MZ1024EFH100\default_isr_vectors.o
 .data          0x00000000        0x0 c:/program files/microchip/xc32/v2.50/bin/bin/../../lib/gcc/pic32mx/4.8.3/../../../../pic32mx/lib/./proc/32MZ1024EFH100\default_isr_vectors.o
 .bss           0x00000000        0x0 c:/program files/microchip/xc32/v2.50/bin/bin/../../lib/gcc/pic32mx/4.8.3/../../../../pic32mx/lib/./proc/32MZ1024EFH100\default_isr_vectors.o
 .reginfo       0x00000000       0x18 c:/program files/microchip/xc32/v2.50/bin/bin/../../lib/gcc/pic32mx/4.8.3/../../../../pic32mx/lib/./proc/32MZ1024EFH100\default_isr_vectors.o
 .discard       0x00000000        0x4 c:/program files/microchip/xc32/v2.50/bin/bin/../../lib/gcc/pic32mx/4.8.3/../../../../pic32mx/lib/./proc/32MZ1024EFH100\default_isr_vectors.o
 .data          0x00000000        0x0 c:/program files/microchip/xc32/v2.50/bin/bin/../../lib/gcc/pic32mx/4.8.3/../../../../pic32mx/lib/fpu64\pic32_software_reset.o
 .bss           0x00000000        0x0 c:/program files/microchip/xc32/v2.50/bin/bin/../../lib/gcc/pic32mx/4.8.3/../../../../pic32mx/lib/fpu64\pic32_software_reset.o
 .reginfo       0x00000000       0x18 c:/program files/microchip/xc32/v2.50/bin/bin/../../lib/gcc/pic32mx/4.8.3/../../../../pic32mx/lib/fpu64\pic32_software_reset.o
 .data          0x00000000        0x0 c:/program files/microchip/xc32/v2.50/bin/bin/../../lib/gcc/pic32mx/4.8.3/../../../../pic32mx/lib/fpu64\libpic32.a(strcmp.o)
 .bss           0x00000000        0x0 c:/program files/microchip/xc32/v2.50/bin/bin/../../lib/gcc/pic32mx/4.8.3/../../../../pic32mx/lib/fpu64\libpic32.a(strcmp.o)
 .reginfo       0x00000000       0x18 c:/program files/microchip/xc32/v2.50/bin/bin/../../lib/gcc/pic32mx/4.8.3/../../../../pic32mx/lib/fpu64\libpic32.a(strcmp.o)
 .data          0x00000000        0x0 c:/program files/microchip/xc32/v2.50/bin/bin/../../lib/gcc/pic32mx/4.8.3/../../../../pic32mx/lib/fpu64\libpic32.a(strlen.o)
 .bss           0x00000000        0x0 c:/program files/microchip/xc32/v2.50/bin/bin/../../lib/gcc/pic32mx/4.8.3/../../../../pic32mx/lib/fpu64\libpic32.a(strlen.o)
 .reginfo       0x00000000       0x18 c:/program files/microchip/xc32/v2.50/bin/bin/../../lib/gcc/pic32mx/4.8.3/../../../../pic32mx/lib/fpu64\libpic32.a(strlen.o)
 .text          0x00000000        0x0 c:/program files/microchip/xc32/v2.50/bin/bin/../../lib/gcc/pic32mx/4.8.3/../../../../pic32mx/lib/fpu64\libpic32.a(default-bootstrap-exception-handler.o)
 .data          0x00000000        0x0 c:/program files/microchip/xc32/v2.50/bin/bin/../../lib/gcc/pic32mx/4.8.3/../../../../pic32mx/lib/fpu64\libpic32.a(default-bootstrap-exception-handler.o)
 .bss           0x00000000        0x0 c:/program files/microchip/xc32/v2.50/bin/bin/../../lib/gcc/pic32mx/4.8.3/../../../../pic32mx/lib/fpu64\libpic32.a(default-bootstrap-exception-handler.o)
 .reginfo       0x00000000       0x18 c:/program files/microchip/xc32/v2.50/bin/bin/../../lib/gcc/pic32mx/4.8.3/../../../../pic32mx/lib/fpu64\libpic32.a(default-bootstrap-exception-handler.o)
 .text          0x00000000        0x0 c:/program files/microchip/xc32/v2.50/bin/bin/../../lib/gcc/pic32mx/4.8.3/../../../../pic32mx/lib/fpu64\libpic32.a(default-on-reset.o)
 .data          0x00000000        0x0 c:/program files/microchip/xc32/v2.50/bin/bin/../../lib/gcc/pic32mx/4.8.3/../../../../pic32mx/lib/fpu64\libpic32.a(default-on-reset.o)
 .bss           0x00000000        0x0 c:/program files/microchip/xc32/v2.50/bin/bin/../../lib/gcc/pic32mx/4.8.3/../../../../pic32mx/lib/fpu64\libpic32.a(default-on-reset.o)
 .reginfo       0x00000000       0x18 c:/program files/microchip/xc32/v2.50/bin/bin/../../lib/gcc/pic32mx/4.8.3/../../../../pic32mx/lib/fpu64\libpic32.a(default-on-reset.o)
 .text          0x00000000        0x0 c:/program files/microchip/xc32/v2.50/bin/bin/../../lib/gcc/pic32mx/4.8.3/../../../../pic32mx/lib/fpu64\libpic32.a(default-on-bootstrap.o)
 .data          0x00000000        0x0 c:/program files/microchip/xc32/v2.50/bin/bin/../../lib/gcc/pic32mx/4.8.3/../../../../pic32mx/lib/fpu64\libpic32.a(default-on-bootstrap.o)
 .bss           0x00000000        0x0 c:/program files/microchip/xc32/v2.50/bin/bin/../../lib/gcc/pic32mx/4.8.3/../../../../pic32mx/lib/fpu64\libpic32.a(default-on-bootstrap.o)
 .reginfo       0x00000000       0x18 c:/program files/microchip/xc32/v2.50/bin/bin/../../lib/gcc/pic32mx/4.8.3/../../../../pic32mx/lib/fpu64\libpic32.a(default-on-bootstrap.o)
 .data          0x00000000        0x0 c:/program files/microchip/xc32/v2.50/bin/bin/../../lib/gcc/pic32mx/4.8.3/../../../../pic32mx/lib/fpu64\libpic32.a(default-nmi-handler.o)
 .bss           0x00000000        0x0 c:/program files/microchip/xc32/v2.50/bin/bin/../../lib/gcc/pic32mx/4.8.3/../../../../pic32mx/lib/fpu64\libpic32.a(default-nmi-handler.o)
 .reginfo       0x00000000       0x18 c:/program files/microchip/xc32/v2.50/bin/bin/../../lib/gcc/pic32mx/4.8.3/../../../../pic32mx/lib/fpu64\libpic32.a(default-nmi-handler.o)
 .data          0x00000000        0x0 c:/program files/microchip/xc32/v2.50/bin/bin/../../lib/gcc/pic32mx/4.8.3/../../../../pic32mx/lib/fpu64\libpic32.a(pic32_data_init.o)
 .bss           0x00000000        0x0 c:/program files/microchip/xc32/v2.50/bin/bin/../../lib/gcc/pic32mx/4.8.3/../../../../pic32mx/lib/fpu64\libpic32.a(pic32_data_init.o)
 .reginfo       0x00000000       0x18 c:/program files/microchip/xc32/v2.50/bin/bin/../../lib/gcc/pic32mx/4.8.3/../../../../pic32mx/lib/fpu64\libpic32.a(pic32_data_init.o)
 .text          0x00000000        0x0 c:/program files/microchip/xc32/v2.50/bin/bin/../../lib/gcc/pic32mx/4.8.3/../../../../pic32mx/lib/fpu64\libpic32.a(pic32_init_cache.o)
 .data          0x00000000        0x0 c:/program files/microchip/xc32/v2.50/bin/bin/../../lib/gcc/pic32mx/4.8.3/../../../../pic32mx/lib/fpu64\libpic32.a(pic32_init_cache.o)
 .bss           0x00000000        0x0 c:/program files/microchip/xc32/v2.50/bin/bin/../../lib/gcc/pic32mx/4.8.3/../../../../pic32mx/lib/fpu64\libpic32.a(pic32_init_cache.o)
 .reginfo       0x00000000       0x18 c:/program files/microchip/xc32/v2.50/bin/bin/../../lib/gcc/pic32mx/4.8.3/../../../../pic32mx/lib/fpu64\libpic32.a(pic32_init_cache.o)
 .cache_init.pic32_size_cache
                0x00000000       0x58 c:/program files/microchip/xc32/v2.50/bin/bin/../../lib/gcc/pic32mx/4.8.3/../../../../pic32mx/lib/fpu64\libpic32.a(pic32_init_cache.o)
 .text          0x00000000        0x0 c:/program files/microchip/xc32/v2.50/bin/bin/../../lib/gcc/pic32mx/4.8.3/../../../../pic32mx/lib/fpu64\libpic32.a(pic32_init_tlb_ebi_sqi.o)
 .data          0x00000000        0x0 c:/program files/microchip/xc32/v2.50/bin/bin/../../lib/gcc/pic32mx/4.8.3/../../../../pic32mx/lib/fpu64\libpic32.a(pic32_init_tlb_ebi_sqi.o)
 .bss           0x00000000        0x0 c:/program files/microchip/xc32/v2.50/bin/bin/../../lib/gcc/pic32mx/4.8.3/../../../../pic32mx/lib/fpu64\libpic32.a(pic32_init_tlb_ebi_sqi.o)
 .reginfo       0x00000000       0x18 c:/program files/microchip/xc32/v2.50/bin/bin/../../lib/gcc/pic32mx/4.8.3/../../../../pic32mx/lib/fpu64\libpic32.a(pic32_init_tlb_ebi_sqi.o)
 .text          0x00000000        0x0 c:/program files/microchip/xc32/v2.50/bin/bin/../../lib/gcc/pic32mx/4.8.3/../../../../pic32mx/lib/fpu64\libpic32.a(general-exception.o)
 .data          0x00000000        0x0 c:/program files/microchip/xc32/v2.50/bin/bin/../../lib/gcc/pic32mx/4.8.3/../../../../pic32mx/lib/fpu64\libpic32.a(general-exception.o)
 .bss           0x00000000        0x0 c:/program files/microchip/xc32/v2.50/bin/bin/../../lib/gcc/pic32mx/4.8.3/../../../../pic32mx/lib/fpu64\libpic32.a(general-exception.o)
 .reginfo       0x00000000       0x18 c:/program files/microchip/xc32/v2.50/bin/bin/../../lib/gcc/pic32mx/4.8.3/../../../../pic32mx/lib/fpu64\libpic32.a(general-exception.o)
 .text          0x00000000        0x0 c:/program files/microchip/xc32/v2.50/bin/bin/../../lib/gcc/pic32mx/4.8.3/../../../../pic32mx/lib/fpu64\libpic32.a(cache-err-exception.o)
 .data          0x00000000        0x0 c:/program files/microchip/xc32/v2.50/bin/bin/../../lib/gcc/pic32mx/4.8.3/../../../../pic32mx/lib/fpu64\libpic32.a(cache-err-exception.o)
 .bss           0x00000000        0x0 c:/program files/microchip/xc32/v2.50/bin/bin/../../lib/gcc/pic32mx/4.8.3/../../../../pic32mx/lib/fpu64\libpic32.a(cache-err-exception.o)
 .reginfo       0x00000000       0x18 c:/program files/microchip/xc32/v2.50/bin/bin/../../lib/gcc/pic32mx/4.8.3/../../../../pic32mx/lib/fpu64\libpic32.a(cache-err-exception.o)
 .text          0x00000000        0x0 c:/program files/microchip/xc32/v2.50/bin/bin/../../lib/gcc/pic32mx/4.8.3/../../../../pic32mx/lib/fpu64\libpic32.a(simple-tlb-refill-exception.o)
 .data          0x00000000        0x0 c:/program files/microchip/xc32/v2.50/bin/bin/../../lib/gcc/pic32mx/4.8.3/../../../../pic32mx/lib/fpu64\libpic32.a(simple-tlb-refill-exception.o)
 .bss           0x00000000        0x0 c:/program files/microchip/xc32/v2.50/bin/bin/../../lib/gcc/pic32mx/4.8.3/../../../../pic32mx/lib/fpu64\libpic32.a(simple-tlb-refill-exception.o)
 .reginfo       0x00000000       0x18 c:/program files/microchip/xc32/v2.50/bin/bin/../../lib/gcc/pic32mx/4.8.3/../../../../pic32mx/lib/fpu64\libpic32.a(simple-tlb-refill-exception.o)
 .text          0x00000000        0x0 c:/program files/microchip/xc32/v2.50/bin/bin/../../lib/gcc/pic32mx/4.8.3/../../../../pic32mx/lib/fpu64\libpic32.a(defaultinterrupt.o)
 .data          0x00000000        0x0 c:/program files/microchip/xc32/v2.50/bin/bin/../../lib/gcc/pic32mx/4.8.3/../../../../pic32mx/lib/fpu64\libpic32.a(defaultinterrupt.o)
 .bss           0x00000000        0x0 c:/program files/microchip/xc32/v2.50/bin/bin/../../lib/gcc/pic32mx/4.8.3/../../../../pic32mx/lib/fpu64\libpic32.a(defaultinterrupt.o)
 .reginfo       0x00000000       0x18 c:/program files/microchip/xc32/v2.50/bin/bin/../../lib/gcc/pic32mx/4.8.3/../../../../pic32mx/lib/fpu64\libpic32.a(defaultinterrupt.o)
 .text          0x00000000        0x0 c:/program files/microchip/xc32/v2.50/bin/bin/../../lib/gcc/pic32mx/4.8.3/../../../../pic32mx/lib/fpu64\libpic32.a(default-cache-err-exception-handler.o)
 .data          0x00000000        0x0 c:/program files/microchip/xc32/v2.50/bin/bin/../../lib/gcc/pic32mx/4.8.3/../../../../pic32mx/lib/fpu64\libpic32.a(default-cache-err-exception-handler.o)
 .bss           0x00000000        0x0 c:/program files/microchip/xc32/v2.50/bin/bin/../../lib/gcc/pic32mx/4.8.3/../../../../pic32mx/lib/fpu64\libpic32.a(default-cache-err-exception-handler.o)
 .reginfo       0x00000000       0x18 c:/program files/microchip/xc32/v2.50/bin/bin/../../lib/gcc/pic32mx/4.8.3/../../../../pic32mx/lib/fpu64\libpic32.a(default-cache-err-exception-handler.o)
 .text          0x00000000        0x0 c:/program files/microchip/xc32/v2.50/bin/bin/../../lib/gcc/pic32mx/4.8.3/../../../../pic32mx/lib/fpu64\libpic32.a(default-simple-tlb-refill-exception-handler.o)
 .data          0x00000000        0x0 c:/program files/microchip/xc32/v2.50/bin/bin/../../lib/gcc/pic32mx/4.8.3/../../../../pic32mx/lib/fpu64\libpic32.a(default-simple-tlb-refill-exception-handler.o)
 .bss           0x00000000        0x0 c:/program files/microchip/xc32/v2.50/bin/bin/../../lib/gcc/pic32mx/4.8.3/../../../../pic32mx/lib/fpu64\libpic32.a(default-simple-tlb-refill-exception-handler.o)
 .reginfo       0x00000000       0x18 c:/program files/microchip/xc32/v2.50/bin/bin/../../lib/gcc/pic32mx/4.8.3/../../../../pic32mx/lib/fpu64\libpic32.a(default-simple-tlb-refill-exception-handler.o)
 .text          0x00000000        0x0 c:/program files/microchip/xc32/v2.50/bin/bin/../../lib/gcc/pic32mx/4.8.3/../../../../pic32mx/lib/fpu64\liblega-c.a(strtol.o)
 .data          0x00000000        0x0 c:/program files/microchip/xc32/v2.50/bin/bin/../../lib/gcc/pic32mx/4.8.3/../../../../pic32mx/lib/fpu64\liblega-c.a(strtol.o)
 .bss           0x00000000        0x0 c:/program files/microchip/xc32/v2.50/bin/bin/../../lib/gcc/pic32mx/4.8.3/../../../../pic32mx/lib/fpu64\liblega-c.a(strtol.o)
 .reginfo       0x00000000       0x18 c:/program files/microchip/xc32/v2.50/bin/bin/../../lib/gcc/pic32mx/4.8.3/../../../../pic32mx/lib/fpu64\liblega-c.a(strtol.o)
 .text          0x00000000        0x0 c:/program files/microchip/xc32/v2.50/bin/bin/../../lib/gcc/pic32mx/4.8.3/../../../../pic32mx/lib/fpu64\liblega-c.a(fputc.o)
 .data          0x00000000        0x0 c:/program files/microchip/xc32/v2.50/bin/bin/../../lib/gcc/pic32mx/4.8.3/../../../../pic32mx/lib/fpu64\liblega-c.a(fputc.o)
 .bss           0x00000000        0x0 c:/program files/microchip/xc32/v2.50/bin/bin/../../lib/gcc/pic32mx/4.8.3/../../../../pic32mx/lib/fpu64\liblega-c.a(fputc.o)
 .reginfo       0x00000000       0x18 c:/program files/microchip/xc32/v2.50/bin/bin/../../lib/gcc/pic32mx/4.8.3/../../../../pic32mx/lib/fpu64\liblega-c.a(fputc.o)
 .text.putc     0x00000000       0x1c c:/program files/microchip/xc32/v2.50/bin/bin/../../lib/gcc/pic32mx/4.8.3/../../../../pic32mx/lib/fpu64\liblega-c.a(fputc.o)
 .text          0x00000000        0x0 c:/program files/microchip/xc32/v2.50/bin/bin/../../lib/gcc/pic32mx/4.8.3/../../../../pic32mx/lib/fpu64\liblega-c.a(fputs.o)
 .data          0x00000000        0x0 c:/program files/microchip/xc32/v2.50/bin/bin/../../lib/gcc/pic32mx/4.8.3/../../../../pic32mx/lib/fpu64\liblega-c.a(fputs.o)
 .bss           0x00000000        0x0 c:/program files/microchip/xc32/v2.50/bin/bin/../../lib/gcc/pic32mx/4.8.3/../../../../pic32mx/lib/fpu64\liblega-c.a(fputs.o)
 .reginfo       0x00000000       0x18 c:/program files/microchip/xc32/v2.50/bin/bin/../../lib/gcc/pic32mx/4.8.3/../../../../pic32mx/lib/fpu64\liblega-c.a(fputs.o)
 .text          0x00000000        0x0 c:/program files/microchip/xc32/v2.50/bin/bin/../../lib/gcc/pic32mx/4.8.3/../../../../pic32mx/lib/fpu64\liblega-c.a(printf_cdnopsuxX.eo)
 .data          0x00000000        0x0 c:/program files/microchip/xc32/v2.50/bin/bin/../../lib/gcc/pic32mx/4.8.3/../../../../pic32mx/lib/fpu64\liblega-c.a(printf_cdnopsuxX.eo)
 .bss           0x00000000        0x0 c:/program files/microchip/xc32/v2.50/bin/bin/../../lib/gcc/pic32mx/4.8.3/../../../../pic32mx/lib/fpu64\liblega-c.a(printf_cdnopsuxX.eo)
 .reginfo       0x00000000       0x18 c:/program files/microchip/xc32/v2.50/bin/bin/../../lib/gcc/pic32mx/4.8.3/../../../../pic32mx/lib/fpu64\liblega-c.a(printf_cdnopsuxX.eo)
 .text          0x00000000        0x0 c:/program files/microchip/xc32/v2.50/bin/bin/../../lib/gcc/pic32mx/4.8.3/../../../../pic32mx/lib/fpu64\liblega-c.a(printf.o)
 .data          0x00000000        0x0 c:/program files/microchip/xc32/v2.50/bin/bin/../../lib/gcc/pic32mx/4.8.3/../../../../pic32mx/lib/fpu64\liblega-c.a(printf.o)
 .bss           0x00000000        0x0 c:/program files/microchip/xc32/v2.50/bin/bin/../../lib/gcc/pic32mx/4.8.3/../../../../pic32mx/lib/fpu64\liblega-c.a(printf.o)
 .reginfo       0x00000000       0x18 c:/program files/microchip/xc32/v2.50/bin/bin/../../lib/gcc/pic32mx/4.8.3/../../../../pic32mx/lib/fpu64\liblega-c.a(printf.o)
 .text          0x00000000        0x0 c:/program files/microchip/xc32/v2.50/bin/bin/../../lib/gcc/pic32mx/4.8.3/../../../../pic32mx/lib/fpu64\liblega-c.a(sprintf_cdnopsuxX.eo)
 .data          0x00000000        0x0 c:/program files/microchip/xc32/v2.50/bin/bin/../../lib/gcc/pic32mx/4.8.3/../../../../pic32mx/lib/fpu64\liblega-c.a(sprintf_cdnopsuxX.eo)
 .bss           0x00000000        0x0 c:/program files/microchip/xc32/v2.50/bin/bin/../../lib/gcc/pic32mx/4.8.3/../../../../pic32mx/lib/fpu64\liblega-c.a(sprintf_cdnopsuxX.eo)
 .reginfo       0x00000000       0x18 c:/program files/microchip/xc32/v2.50/bin/bin/../../lib/gcc/pic32mx/4.8.3/../../../../pic32mx/lib/fpu64\liblega-c.a(sprintf_cdnopsuxX.eo)
 .text          0x00000000        0x0 c:/program files/microchip/xc32/v2.50/bin/bin/../../lib/gcc/pic32mx/4.8.3/../../../../pic32mx/lib/fpu64\liblega-c.a(sscanf_cdnopuxX.eo)
 .data          0x00000000        0x0 c:/program files/microchip/xc32/v2.50/bin/bin/../../lib/gcc/pic32mx/4.8.3/../../../../pic32mx/lib/fpu64\liblega-c.a(sscanf_cdnopuxX.eo)
 .bss           0x00000000        0x0 c:/program files/microchip/xc32/v2.50/bin/bin/../../lib/gcc/pic32mx/4.8.3/../../../../pic32mx/lib/fpu64\liblega-c.a(sscanf_cdnopuxX.eo)
 .reginfo       0x00000000       0x18 c:/program files/microchip/xc32/v2.50/bin/bin/../../lib/gcc/pic32mx/4.8.3/../../../../pic32mx/lib/fpu64\liblega-c.a(sscanf_cdnopuxX.eo)
 .text          0x00000000        0x0 c:/program files/microchip/xc32/v2.50/bin/bin/../../lib/gcc/pic32mx/4.8.3/../../../../pic32mx/lib/fpu64\liblega-c.a(ctype.o)
 .data          0x00000000        0x0 c:/program files/microchip/xc32/v2.50/bin/bin/../../lib/gcc/pic32mx/4.8.3/../../../../pic32mx/lib/fpu64\liblega-c.a(ctype.o)
 .bss           0x00000000        0x0 c:/program files/microchip/xc32/v2.50/bin/bin/../../lib/gcc/pic32mx/4.8.3/../../../../pic32mx/lib/fpu64\liblega-c.a(ctype.o)
 .reginfo       0x00000000       0x18 c:/program files/microchip/xc32/v2.50/bin/bin/../../lib/gcc/pic32mx/4.8.3/../../../../pic32mx/lib/fpu64\liblega-c.a(ctype.o)
 .text          0x00000000        0x0 c:/program files/microchip/xc32/v2.50/bin/bin/../../lib/gcc/pic32mx/4.8.3/../../../../pic32mx/lib/fpu64\liblega-c.a(errno.o)
 .data          0x00000000        0x0 c:/program files/microchip/xc32/v2.50/bin/bin/../../lib/gcc/pic32mx/4.8.3/../../../../pic32mx/lib/fpu64\liblega-c.a(errno.o)
 .bss           0x00000000        0x0 c:/program files/microchip/xc32/v2.50/bin/bin/../../lib/gcc/pic32mx/4.8.3/../../../../pic32mx/lib/fpu64\liblega-c.a(errno.o)
 .reginfo       0x00000000       0x18 c:/program files/microchip/xc32/v2.50/bin/bin/../../lib/gcc/pic32mx/4.8.3/../../../../pic32mx/lib/fpu64\liblega-c.a(errno.o)
 .text          0x00000000        0x0 c:/program files/microchip/xc32/v2.50/bin/bin/../../lib/gcc/pic32mx/4.8.3/../../../../pic32mx/lib/fpu64\liblega-c.a(_doprnt_cdnopsuxX.eo)
 .data          0x00000000        0x0 c:/program files/microchip/xc32/v2.50/bin/bin/../../lib/gcc/pic32mx/4.8.3/../../../../pic32mx/lib/fpu64\liblega-c.a(_doprnt_cdnopsuxX.eo)
 .bss           0x00000000        0x0 c:/program files/microchip/xc32/v2.50/bin/bin/../../lib/gcc/pic32mx/4.8.3/../../../../pic32mx/lib/fpu64\liblega-c.a(_doprnt_cdnopsuxX.eo)
 .reginfo       0x00000000       0x18 c:/program files/microchip/xc32/v2.50/bin/bin/../../lib/gcc/pic32mx/4.8.3/../../../../pic32mx/lib/fpu64\liblega-c.a(_doprnt_cdnopsuxX.eo)
 .text._vfprintf_cdnopsuxX
                0x00000000       0x1c c:/program files/microchip/xc32/v2.50/bin/bin/../../lib/gcc/pic32mx/4.8.3/../../../../pic32mx/lib/fpu64\liblega-c.a(_doprnt_cdnopsuxX.eo)
 .text._io_exit
                0x00000000       0x14 c:/program files/microchip/xc32/v2.50/bin/bin/../../lib/gcc/pic32mx/4.8.3/../../../../pic32mx/lib/fpu64\liblega-c.a(_doprnt_cdnopsuxX.eo)
 .text          0x00000000        0x0 c:/program files/microchip/xc32/v2.50/bin/bin/../../lib/gcc/pic32mx/4.8.3/../../../../pic32mx/lib/fpu64\liblega-c.a(_doprnt.o)
 .data          0x00000000        0x0 c:/program files/microchip/xc32/v2.50/bin/bin/../../lib/gcc/pic32mx/4.8.3/../../../../pic32mx/lib/fpu64\liblega-c.a(_doprnt.o)
 .bss           0x00000000        0x0 c:/program files/microchip/xc32/v2.50/bin/bin/../../lib/gcc/pic32mx/4.8.3/../../../../pic32mx/lib/fpu64\liblega-c.a(_doprnt.o)
 .reginfo       0x00000000       0x18 c:/program files/microchip/xc32/v2.50/bin/bin/../../lib/gcc/pic32mx/4.8.3/../../../../pic32mx/lib/fpu64\liblega-c.a(_doprnt.o)
 .text.vfprintf
                0x00000000       0x1c c:/program files/microchip/xc32/v2.50/bin/bin/../../lib/gcc/pic32mx/4.8.3/../../../../pic32mx/lib/fpu64\liblega-c.a(_doprnt.o)
 .text._io_exit
                0x00000000       0x14 c:/program files/microchip/xc32/v2.50/bin/bin/../../lib/gcc/pic32mx/4.8.3/../../../../pic32mx/lib/fpu64\liblega-c.a(_doprnt.o)
 .text          0x00000000        0x0 c:/program files/microchip/xc32/v2.50/bin/bin/../../lib/gcc/pic32mx/4.8.3/../../../../pic32mx/lib/fpu64\liblega-c.a(_iobdata.o)
 .reginfo       0x00000000       0x18 c:/program files/microchip/xc32/v2.50/bin/bin/../../lib/gcc/pic32mx/4.8.3/../../../../pic32mx/lib/fpu64\liblega-c.a(_iobdata.o)
 .text          0x00000000        0x0 c:/program files/microchip/xc32/v2.50/bin/bin/../../lib/gcc/pic32mx/4.8.3/../../../../pic32mx/lib/fpu64\liblega-c.a(_iobfuncs.o)
 .data          0x00000000        0x0 c:/program files/microchip/xc32/v2.50/bin/bin/../../lib/gcc/pic32mx/4.8.3/../../../../pic32mx/lib/fpu64\liblega-c.a(_iobfuncs.o)
 .bss           0x00000000        0x0 c:/program files/microchip/xc32/v2.50/bin/bin/../../lib/gcc/pic32mx/4.8.3/../../../../pic32mx/lib/fpu64\liblega-c.a(_iobfuncs.o)
 .reginfo       0x00000000       0x18 c:/program files/microchip/xc32/v2.50/bin/bin/../../lib/gcc/pic32mx/4.8.3/../../../../pic32mx/lib/fpu64\liblega-c.a(_iobfuncs.o)
 .text._io_exit
                0x00000000       0x14 c:/program files/microchip/xc32/v2.50/bin/bin/../../lib/gcc/pic32mx/4.8.3/../../../../pic32mx/lib/fpu64\liblega-c.a(_iobfuncs.o)
 .text          0x00000000        0x0 c:/program files/microchip/xc32/v2.50/bin/bin/../../lib/gcc/pic32mx/4.8.3/../../../../pic32mx/lib/fpu64\liblega-c.a(_iobstring.o)
 .data          0x00000000        0x0 c:/program files/microchip/xc32/v2.50/bin/bin/../../lib/gcc/pic32mx/4.8.3/../../../../pic32mx/lib/fpu64\liblega-c.a(_iobstring.o)
 .bss           0x00000000        0x0 c:/program files/microchip/xc32/v2.50/bin/bin/../../lib/gcc/pic32mx/4.8.3/../../../../pic32mx/lib/fpu64\liblega-c.a(_iobstring.o)
 .reginfo       0x00000000       0x18 c:/program files/microchip/xc32/v2.50/bin/bin/../../lib/gcc/pic32mx/4.8.3/../../../../pic32mx/lib/fpu64\liblega-c.a(_iobstring.o)
 .text          0x00000000        0x0 c:/program files/microchip/xc32/v2.50/bin/bin/../../lib/gcc/pic32mx/4.8.3/../../../../pic32mx/lib/fpu64\liblega-c.a(_doscan.o)
 .data          0x00000000        0x0 c:/program files/microchip/xc32/v2.50/bin/bin/../../lib/gcc/pic32mx/4.8.3/../../../../pic32mx/lib/fpu64\liblega-c.a(_doscan.o)
 .bss           0x00000000        0x0 c:/program files/microchip/xc32/v2.50/bin/bin/../../lib/gcc/pic32mx/4.8.3/../../../../pic32mx/lib/fpu64\liblega-c.a(_doscan.o)
 .reginfo       0x00000000       0x18 c:/program files/microchip/xc32/v2.50/bin/bin/../../lib/gcc/pic32mx/4.8.3/../../../../pic32mx/lib/fpu64\liblega-c.a(_doscan.o)
 .text.vfscanf  0x00000000       0x1c c:/program files/microchip/xc32/v2.50/bin/bin/../../lib/gcc/pic32mx/4.8.3/../../../../pic32mx/lib/fpu64\liblega-c.a(_doscan.o)
 .text._io_exit
                0x00000000       0x40 c:/program files/microchip/xc32/v2.50/bin/bin/../../lib/gcc/pic32mx/4.8.3/../../../../pic32mx/lib/fpu64\liblega-c.a(_doscan.o)
 .text          0x00000000        0x0 c:/program files/microchip/xc32/v2.50/bin/bin/../../lib/gcc/pic32mx/4.8.3/../../../../pic32mx/lib/fpu64\liblega-c.a(stubs.o)
 .data          0x00000000        0x0 c:/program files/microchip/xc32/v2.50/bin/bin/../../lib/gcc/pic32mx/4.8.3/../../../../pic32mx/lib/fpu64\liblega-c.a(stubs.o)
 .bss           0x00000000        0x4 c:/program files/microchip/xc32/v2.50/bin/bin/../../lib/gcc/pic32mx/4.8.3/../../../../pic32mx/lib/fpu64\liblega-c.a(stubs.o)
 .reginfo       0x00000000       0x18 c:/program files/microchip/xc32/v2.50/bin/bin/../../lib/gcc/pic32mx/4.8.3/../../../../pic32mx/lib/fpu64\liblega-c.a(stubs.o)
 .text._weak_pthread_mutex_init
                0x00000000        0x8 c:/program files/microchip/xc32/v2.50/bin/bin/../../lib/gcc/pic32mx/4.8.3/../../../../pic32mx/lib/fpu64\liblega-c.a(stubs.o)
 .text._weak_pthread_mutex_destroy
                0x00000000        0x8 c:/program files/microchip/xc32/v2.50/bin/bin/../../lib/gcc/pic32mx/4.8.3/../../../../pic32mx/lib/fpu64\liblega-c.a(stubs.o)
 .text._weak_pthread_mutex_lock
                0x00000000        0x8 c:/program files/microchip/xc32/v2.50/bin/bin/../../lib/gcc/pic32mx/4.8.3/../../../../pic32mx/lib/fpu64\liblega-c.a(stubs.o)
 .text._weak_pthread_mutex_trylock
                0x00000000        0x8 c:/program files/microchip/xc32/v2.50/bin/bin/../../lib/gcc/pic32mx/4.8.3/../../../../pic32mx/lib/fpu64\liblega-c.a(stubs.o)
 .text._weak_pthread_mutex_unlock
                0x00000000        0x8 c:/program files/microchip/xc32/v2.50/bin/bin/../../lib/gcc/pic32mx/4.8.3/../../../../pic32mx/lib/fpu64\liblega-c.a(stubs.o)
 .text._weak_pthread_mutex_setname_np
                0x00000000        0x8 c:/program files/microchip/xc32/v2.50/bin/bin/../../lib/gcc/pic32mx/4.8.3/../../../../pic32mx/lib/fpu64\liblega-c.a(stubs.o)
 .text._weak_pthread_mutexattr_init
                0x00000000        0x8 c:/program files/microchip/xc32/v2.50/bin/bin/../../lib/gcc/pic32mx/4.8.3/../../../../pic32mx/lib/fpu64\liblega-c.a(stubs.o)
 .text._weak_pthread_mutexattr_destroy
                0x00000000        0x8 c:/program files/microchip/xc32/v2.50/bin/bin/../../lib/gcc/pic32mx/4.8.3/../../../../pic32mx/lib/fpu64\liblega-c.a(stubs.o)
 .text._weak_pthread_mutexattr_setname_np
                0x00000000        0x8 c:/program files/microchip/xc32/v2.50/bin/bin/../../lib/gcc/pic32mx/4.8.3/../../../../pic32mx/lib/fpu64\liblega-c.a(stubs.o)
 .text._weak_pthread_mutexattr_settype_np
                0x00000000        0x8 c:/program files/microchip/xc32/v2.50/bin/bin/../../lib/gcc/pic32mx/4.8.3/../../../../pic32mx/lib/fpu64\liblega-c.a(stubs.o)
 .text._weak_pthread_sysconf_np
                0x00000000        0x8 c:/program files/microchip/xc32/v2.50/bin/bin/../../lib/gcc/pic32mx/4.8.3/../../../../pic32mx/lib/fpu64\liblega-c.a(stubs.o)
 .text._weak_pthread_sigdisable_np
                0x00000000        0x8 c:/program files/microchip/xc32/v2.50/bin/bin/../../lib/gcc/pic32mx/4.8.3/../../../../pic32mx/lib/fpu64\liblega-c.a(stubs.o)
 .text._weak_pthread_sigrestore_np
                0x00000000        0x8 c:/program files/microchip/xc32/v2.50/bin/bin/../../lib/gcc/pic32mx/4.8.3/../../../../pic32mx/lib/fpu64\liblega-c.a(stubs.o)
 .text._weak__pthread_cleanup_push
                0x00000000        0x8 c:/program files/microchip/xc32/v2.50/bin/bin/../../lib/gcc/pic32mx/4.8.3/../../../../pic32mx/lib/fpu64\liblega-c.a(stubs.o)
 .text._weak__pthread_cleanup_pop
                0x00000000        0x8 c:/program files/microchip/xc32/v2.50/bin/bin/../../lib/gcc/pic32mx/4.8.3/../../../../pic32mx/lib/fpu64\liblega-c.a(stubs.o)
 .text._weak__pthread_cleanup_push_defer
                0x00000000        0x8 c:/program files/microchip/xc32/v2.50/bin/bin/../../lib/gcc/pic32mx/4.8.3/../../../../pic32mx/lib/fpu64\liblega-c.a(stubs.o)
 .text._weak__pthread_cleanup_pop_restore
                0x00000000        0x8 c:/program files/microchip/xc32/v2.50/bin/bin/../../lib/gcc/pic32mx/4.8.3/../../../../pic32mx/lib/fpu64\liblega-c.a(stubs.o)
 .text._weak_pthread_once
                0x00000000       0x38 c:/program files/microchip/xc32/v2.50/bin/bin/../../lib/gcc/pic32mx/4.8.3/../../../../pic32mx/lib/fpu64\liblega-c.a(stubs.o)
 .text._weak_pthread_key_create
                0x00000000        0x8 c:/program files/microchip/xc32/v2.50/bin/bin/../../lib/gcc/pic32mx/4.8.3/../../../../pic32mx/lib/fpu64\liblega-c.a(stubs.o)
 .text._weak_pthread_setspecific
                0x00000000        0x8 c:/program files/microchip/xc32/v2.50/bin/bin/../../lib/gcc/pic32mx/4.8.3/../../../../pic32mx/lib/fpu64\liblega-c.a(stubs.o)
 .text._weak_pthread_getspecific
                0x00000000        0x8 c:/program files/microchip/xc32/v2.50/bin/bin/../../lib/gcc/pic32mx/4.8.3/../../../../pic32mx/lib/fpu64\liblega-c.a(stubs.o)
 .text._weak__libc_private_storage
                0x00000000        0x8 c:/program files/microchip/xc32/v2.50/bin/bin/../../lib/gcc/pic32mx/4.8.3/../../../../pic32mx/lib/fpu64\liblega-c.a(stubs.o)
 .text          0x00000000        0x0 c:/program files/microchip/xc32/v2.50/bin/bin/../../lib/gcc/pic32mx/4.8.3/../../../../pic32mx/lib/fpu64\liblega-c.a(strchr.o)
 .data          0x00000000        0x0 c:/program files/microchip/xc32/v2.50/bin/bin/../../lib/gcc/pic32mx/4.8.3/../../../../pic32mx/lib/fpu64\liblega-c.a(strchr.o)
 .bss           0x00000000        0x0 c:/program files/microchip/xc32/v2.50/bin/bin/../../lib/gcc/pic32mx/4.8.3/../../../../pic32mx/lib/fpu64\liblega-c.a(strchr.o)
 .reginfo       0x00000000       0x18 c:/program files/microchip/xc32/v2.50/bin/bin/../../lib/gcc/pic32mx/4.8.3/../../../../pic32mx/lib/fpu64\liblega-c.a(strchr.o)
 .text          0x00000000        0x0 c:/program files/microchip/xc32/v2.50/bin/bin/../../lib/gcc/pic32mx/4.8.3/../../../../pic32mx/lib/fpu64\liblega-c.a(memset.o)
 .data          0x00000000        0x0 c:/program files/microchip/xc32/v2.50/bin/bin/../../lib/gcc/pic32mx/4.8.3/../../../../pic32mx/lib/fpu64\liblega-c.a(memset.o)
 .bss           0x00000000        0x0 c:/program files/microchip/xc32/v2.50/bin/bin/../../lib/gcc/pic32mx/4.8.3/../../../../pic32mx/lib/fpu64\liblega-c.a(memset.o)
 .reginfo       0x00000000       0x18 c:/program files/microchip/xc32/v2.50/bin/bin/../../lib/gcc/pic32mx/4.8.3/../../../../pic32mx/lib/fpu64\liblega-c.a(memset.o)
 .text          0x00000000        0x0 c:/program files/microchip/xc32/v2.50/bin/bin/../../lib/gcc/pic32mx/4.8.3/../../../../pic32mx/lib/fpu64\liblega-c.a(malloc.o)
 .reginfo       0x00000000       0x18 c:/program files/microchip/xc32/v2.50/bin/bin/../../lib/gcc/pic32mx/4.8.3/../../../../pic32mx/lib/fpu64\liblega-c.a(malloc.o)
 .text          0x00000000        0x0 c:/program files/microchip/xc32/v2.50/bin/bin/../../lib/gcc/pic32mx/4.8.3/../../../../pic32mx/lib/fpu64\liblega-c.a(malloc_realloc.o)
 .data          0x00000000        0x0 c:/program files/microchip/xc32/v2.50/bin/bin/../../lib/gcc/pic32mx/4.8.3/../../../../pic32mx/lib/fpu64\liblega-c.a(malloc_realloc.o)
 .bss           0x00000000        0x0 c:/program files/microchip/xc32/v2.50/bin/bin/../../lib/gcc/pic32mx/4.8.3/../../../../pic32mx/lib/fpu64\liblega-c.a(malloc_realloc.o)
 .reginfo       0x00000000       0x18 c:/program files/microchip/xc32/v2.50/bin/bin/../../lib/gcc/pic32mx/4.8.3/../../../../pic32mx/lib/fpu64\liblega-c.a(malloc_realloc.o)
 .text          0x00000000        0x0 c:/program files/microchip/xc32/v2.50/bin/bin/../../lib/gcc/pic32mx/4.8.3/../../../../pic32mx/lib/fpu64\liblega-c.a(strtoul.o)
 .data          0x00000000        0x0 c:/program files/microchip/xc32/v2.50/bin/bin/../../lib/gcc/pic32mx/4.8.3/../../../../pic32mx/lib/fpu64\liblega-c.a(strtoul.o)
 .bss           0x00000000        0x0 c:/program files/microchip/xc32/v2.50/bin/bin/../../lib/gcc/pic32mx/4.8.3/../../../../pic32mx/lib/fpu64\liblega-c.a(strtoul.o)
 .reginfo       0x00000000       0x18 c:/program files/microchip/xc32/v2.50/bin/bin/../../lib/gcc/pic32mx/4.8.3/../../../../pic32mx/lib/fpu64\liblega-c.a(strtoul.o)
 .text          0x00000000        0x0 c:/program files/microchip/xc32/v2.50/bin/bin/../../lib/gcc/pic32mx/4.8.3/../../../../pic32mx/lib/fpu64\liblega-c.a(strtoll.o)
 .data          0x00000000        0x0 c:/program files/microchip/xc32/v2.50/bin/bin/../../lib/gcc/pic32mx/4.8.3/../../../../pic32mx/lib/fpu64\liblega-c.a(strtoll.o)
 .bss           0x00000000        0x0 c:/program files/microchip/xc32/v2.50/bin/bin/../../lib/gcc/pic32mx/4.8.3/../../../../pic32mx/lib/fpu64\liblega-c.a(strtoll.o)
 .reginfo       0x00000000       0x18 c:/program files/microchip/xc32/v2.50/bin/bin/../../lib/gcc/pic32mx/4.8.3/../../../../pic32mx/lib/fpu64\liblega-c.a(strtoll.o)
 .text          0x00000000        0x0 c:/program files/microchip/xc32/v2.50/bin/bin/../../lib/gcc/pic32mx/4.8.3/../../../../pic32mx/lib/fpu64\liblega-c.a(strtoull.o)
 .data          0x00000000        0x0 c:/program files/microchip/xc32/v2.50/bin/bin/../../lib/gcc/pic32mx/4.8.3/../../../../pic32mx/lib/fpu64\liblega-c.a(strtoull.o)
 .bss           0x00000000        0x0 c:/program files/microchip/xc32/v2.50/bin/bin/../../lib/gcc/pic32mx/4.8.3/../../../../pic32mx/lib/fpu64\liblega-c.a(strtoull.o)
 .reginfo       0x00000000       0x18 c:/program files/microchip/xc32/v2.50/bin/bin/../../lib/gcc/pic32mx/4.8.3/../../../../pic32mx/lib/fpu64\liblega-c.a(strtoull.o)
 .text          0x00000000        0x0 c:/program files/microchip/xc32/v2.50/bin/bin/../../lib/gcc/pic32mx/4.8.3/../../../../pic32mx/lib/fpu64\liblega-c.a(fullexit.o)
 .data          0x00000000       0x20 c:/program files/microchip/xc32/v2.50/bin/bin/../../lib/gcc/pic32mx/4.8.3/../../../../pic32mx/lib/fpu64\liblega-c.a(fullexit.o)
 .bss           0x00000000        0x0 c:/program files/microchip/xc32/v2.50/bin/bin/../../lib/gcc/pic32mx/4.8.3/../../../../pic32mx/lib/fpu64\liblega-c.a(fullexit.o)
 .reginfo       0x00000000       0x18 c:/program files/microchip/xc32/v2.50/bin/bin/../../lib/gcc/pic32mx/4.8.3/../../../../pic32mx/lib/fpu64\liblega-c.a(fullexit.o)
 .text._fullexit
                0x00000000       0xa4 c:/program files/microchip/xc32/v2.50/bin/bin/../../lib/gcc/pic32mx/4.8.3/../../../../pic32mx/lib/fpu64\liblega-c.a(fullexit.o)
 .text          0x00000000        0x0 c:/program files/microchip/xc32/v2.50/bin/bin/../../lib/gcc/pic32mx/4.8.3/../../../../pic32mx/lib/fpu64\liblega-c.a(fgetc.o)
 .data          0x00000000        0x0 c:/program files/microchip/xc32/v2.50/bin/bin/../../lib/gcc/pic32mx/4.8.3/../../../../pic32mx/lib/fpu64\liblega-c.a(fgetc.o)
 .bss           0x00000000        0x0 c:/program files/microchip/xc32/v2.50/bin/bin/../../lib/gcc/pic32mx/4.8.3/../../../../pic32mx/lib/fpu64\liblega-c.a(fgetc.o)
 .reginfo       0x00000000       0x18 c:/program files/microchip/xc32/v2.50/bin/bin/../../lib/gcc/pic32mx/4.8.3/../../../../pic32mx/lib/fpu64\liblega-c.a(fgetc.o)
 .text.getc     0x00000000       0x1c c:/program files/microchip/xc32/v2.50/bin/bin/../../lib/gcc/pic32mx/4.8.3/../../../../pic32mx/lib/fpu64\liblega-c.a(fgetc.o)
 .text.getchar  0x00000000       0x24 c:/program files/microchip/xc32/v2.50/bin/bin/../../lib/gcc/pic32mx/4.8.3/../../../../pic32mx/lib/fpu64\liblega-c.a(fgetc.o)
 .text          0x00000000        0x0 c:/program files/microchip/xc32/v2.50/bin/bin/../../lib/gcc/pic32mx/4.8.3/../../../../pic32mx/lib/fpu64\liblega-c.a(ungetc.o)
 .data          0x00000000        0x0 c:/program files/microchip/xc32/v2.50/bin/bin/../../lib/gcc/pic32mx/4.8.3/../../../../pic32mx/lib/fpu64\liblega-c.a(ungetc.o)
 .bss           0x00000000        0x0 c:/program files/microchip/xc32/v2.50/bin/bin/../../lib/gcc/pic32mx/4.8.3/../../../../pic32mx/lib/fpu64\liblega-c.a(ungetc.o)
 .reginfo       0x00000000       0x18 c:/program files/microchip/xc32/v2.50/bin/bin/../../lib/gcc/pic32mx/4.8.3/../../../../pic32mx/lib/fpu64\liblega-c.a(ungetc.o)
 .text          0x00000000        0x0 c:/program files/microchip/xc32/v2.50/bin/bin/../../lib/gcc/pic32mx/4.8.3/../../../../pic32mx/lib/fpu64\liblega-c.a(memmove.o)
 .data          0x00000000        0x0 c:/program files/microchip/xc32/v2.50/bin/bin/../../lib/gcc/pic32mx/4.8.3/../../../../pic32mx/lib/fpu64\liblega-c.a(memmove.o)
 .bss           0x00000000        0x0 c:/program files/microchip/xc32/v2.50/bin/bin/../../lib/gcc/pic32mx/4.8.3/../../../../pic32mx/lib/fpu64\liblega-c.a(memmove.o)
 .reginfo       0x00000000       0x18 c:/program files/microchip/xc32/v2.50/bin/bin/../../lib/gcc/pic32mx/4.8.3/../../../../pic32mx/lib/fpu64\liblega-c.a(memmove.o)
 .text          0x00000000        0x0 c:/program files/microchip/xc32/v2.50/bin/bin/../../lib/gcc/pic32mx/4.8.3/../../../../pic32mx/lib/fpu64\liblega-c.a(memcpy.o)
 .data          0x00000000        0x0 c:/program files/microchip/xc32/v2.50/bin/bin/../../lib/gcc/pic32mx/4.8.3/../../../../pic32mx/lib/fpu64\liblega-c.a(memcpy.o)
 .bss           0x00000000        0x0 c:/program files/microchip/xc32/v2.50/bin/bin/../../lib/gcc/pic32mx/4.8.3/../../../../pic32mx/lib/fpu64\liblega-c.a(memcpy.o)
 .reginfo       0x00000000       0x18 c:/program files/microchip/xc32/v2.50/bin/bin/../../lib/gcc/pic32mx/4.8.3/../../../../pic32mx/lib/fpu64\liblega-c.a(memcpy.o)
 .text          0x00000000        0x0 c:/program files/microchip/xc32/v2.50/bin/bin/../../lib/gcc/pic32mx/4.8.3/../../../../pic32mx/lib/fpu64\liblega-c.a(_ioinit.o)
 .data          0x00000000        0x0 c:/program files/microchip/xc32/v2.50/bin/bin/../../lib/gcc/pic32mx/4.8.3/../../../../pic32mx/lib/fpu64\liblega-c.a(_ioinit.o)
 .bss           0x00000000        0x0 c:/program files/microchip/xc32/v2.50/bin/bin/../../lib/gcc/pic32mx/4.8.3/../../../../pic32mx/lib/fpu64\liblega-c.a(_ioinit.o)
 .reginfo       0x00000000       0x18 c:/program files/microchip/xc32/v2.50/bin/bin/../../lib/gcc/pic32mx/4.8.3/../../../../pic32mx/lib/fpu64\liblega-c.a(_ioinit.o)
 .text._o_init  0x00000000       0xa4 c:/program files/microchip/xc32/v2.50/bin/bin/../../lib/gcc/pic32mx/4.8.3/../../../../pic32mx/lib/fpu64\liblega-c.a(_ioinit.o)
 .text          0x00000000        0x0 c:/program files/microchip/xc32/v2.50/bin/bin/../../lib/gcc/pic32mx/4.8.3/../../../../pic32mx/lib/fpu64\liblega-c.a(_cleanup.o)
 .data          0x00000000        0x0 c:/program files/microchip/xc32/v2.50/bin/bin/../../lib/gcc/pic32mx/4.8.3/../../../../pic32mx/lib/fpu64\liblega-c.a(_cleanup.o)
 .bss           0x00000000        0x4 c:/program files/microchip/xc32/v2.50/bin/bin/../../lib/gcc/pic32mx/4.8.3/../../../../pic32mx/lib/fpu64\liblega-c.a(_cleanup.o)
 .reginfo       0x00000000       0x18 c:/program files/microchip/xc32/v2.50/bin/bin/../../lib/gcc/pic32mx/4.8.3/../../../../pic32mx/lib/fpu64\liblega-c.a(_cleanup.o)
 .text._cleanup
                0x00000000       0x30 c:/program files/microchip/xc32/v2.50/bin/bin/../../lib/gcc/pic32mx/4.8.3/../../../../pic32mx/lib/fpu64\liblega-c.a(_cleanup.o)
 .text          0x00000000        0x0 c:/program files/microchip/xc32/v2.50/bin/bin/../../lib/gcc/pic32mx/4.8.3/../../../../pic32mx/lib/fpu64\liblega-c.a(_bufproc.o)
 .data          0x00000000        0x0 c:/program files/microchip/xc32/v2.50/bin/bin/../../lib/gcc/pic32mx/4.8.3/../../../../pic32mx/lib/fpu64\liblega-c.a(_bufproc.o)
 .bss           0x00000000        0x0 c:/program files/microchip/xc32/v2.50/bin/bin/../../lib/gcc/pic32mx/4.8.3/../../../../pic32mx/lib/fpu64\liblega-c.a(_bufproc.o)
 .reginfo       0x00000000       0x18 c:/program files/microchip/xc32/v2.50/bin/bin/../../lib/gcc/pic32mx/4.8.3/../../../../pic32mx/lib/fpu64\liblega-c.a(_bufproc.o)
 .text._buffree
                0x00000000       0x64 c:/program files/microchip/xc32/v2.50/bin/bin/../../lib/gcc/pic32mx/4.8.3/../../../../pic32mx/lib/fpu64\liblega-c.a(_bufproc.o)
 .text          0x00000000        0x0 c:/program files/microchip/xc32/v2.50/bin/bin/../../lib/gcc/pic32mx/4.8.3/../../../../pic32mx/lib/fpu64\libmfd.a(s_modf.o)
 .data          0x00000000        0x0 c:/program files/microchip/xc32/v2.50/bin/bin/../../lib/gcc/pic32mx/4.8.3/../../../../pic32mx/lib/fpu64\libmfd.a(s_modf.o)
 .bss           0x00000000        0x0 c:/program files/microchip/xc32/v2.50/bin/bin/../../lib/gcc/pic32mx/4.8.3/../../../../pic32mx/lib/fpu64\libmfd.a(s_modf.o)
 .reginfo       0x00000000       0x18 c:/program files/microchip/xc32/v2.50/bin/bin/../../lib/gcc/pic32mx/4.8.3/../../../../pic32mx/lib/fpu64\libmfd.a(s_modf.o)
 .text          0x00000000        0x0 c:/program files/microchip/xc32/v2.50/bin/bin/../../lib/gcc/pic32mx/4.8.3/../../../../pic32mx/lib/fpu64\libmfd.a(strtod.o)
 .data          0x00000000        0x0 c:/program files/microchip/xc32/v2.50/bin/bin/../../lib/gcc/pic32mx/4.8.3/../../../../pic32mx/lib/fpu64\libmfd.a(strtod.o)
 .bss           0x00000000        0x0 c:/program files/microchip/xc32/v2.50/bin/bin/../../lib/gcc/pic32mx/4.8.3/../../../../pic32mx/lib/fpu64\libmfd.a(strtod.o)
 .reginfo       0x00000000       0x18 c:/program files/microchip/xc32/v2.50/bin/bin/../../lib/gcc/pic32mx/4.8.3/../../../../pic32mx/lib/fpu64\libmfd.a(strtod.o)
 .text          0x00000000        0x0 c:/program files/microchip/xc32/v2.50/bin/bin/../../lib/gcc/pic32mx/4.8.3/../../../../pic32mx/lib/fpu64\libmfd.a(strtof.o)
 .data          0x00000000        0x0 c:/program files/microchip/xc32/v2.50/bin/bin/../../lib/gcc/pic32mx/4.8.3/../../../../pic32mx/lib/fpu64\libmfd.a(strtof.o)
 .bss           0x00000000        0x0 c:/program files/microchip/xc32/v2.50/bin/bin/../../lib/gcc/pic32mx/4.8.3/../../../../pic32mx/lib/fpu64\libmfd.a(strtof.o)
 .reginfo       0x00000000       0x18 c:/program files/microchip/xc32/v2.50/bin/bin/../../lib/gcc/pic32mx/4.8.3/../../../../pic32mx/lib/fpu64\libmfd.a(strtof.o)
 .data          0x00000000        0x0 c:/program files/microchip/xc32/v2.50/bin/bin/../../lib/gcc/pic32mx/4.8.3/fpu64\libgcc.a(_divdi3.o)
 .bss           0x00000000        0x0 c:/program files/microchip/xc32/v2.50/bin/bin/../../lib/gcc/pic32mx/4.8.3/fpu64\libgcc.a(_divdi3.o)
 .reginfo       0x00000000       0x18 c:/program files/microchip/xc32/v2.50/bin/bin/../../lib/gcc/pic32mx/4.8.3/fpu64\libgcc.a(_divdi3.o)
 .data          0x00000000        0x0 c:/program files/microchip/xc32/v2.50/bin/bin/../../lib/gcc/pic32mx/4.8.3/fpu64\libgcc.a(_udivdi3.o)
 .bss           0x00000000        0x0 c:/program files/microchip/xc32/v2.50/bin/bin/../../lib/gcc/pic32mx/4.8.3/fpu64\libgcc.a(_udivdi3.o)
 .reginfo       0x00000000       0x18 c:/program files/microchip/xc32/v2.50/bin/bin/../../lib/gcc/pic32mx/4.8.3/fpu64\libgcc.a(_udivdi3.o)
 .data          0x00000000        0x0 c:/program files/microchip/xc32/v2.50/bin/bin/../../lib/gcc/pic32mx/4.8.3/fpu64\libgcc.a(_umoddi3.o)
 .bss           0x00000000        0x0 c:/program files/microchip/xc32/v2.50/bin/bin/../../lib/gcc/pic32mx/4.8.3/fpu64\libgcc.a(_umoddi3.o)
 .reginfo       0x00000000       0x18 c:/program files/microchip/xc32/v2.50/bin/bin/../../lib/gcc/pic32mx/4.8.3/fpu64\libgcc.a(_umoddi3.o)
 .text          0x00000000        0x0 c:/program files/microchip/xc32/v2.50/bin/bin/../../lib/gcc/pic32mx/4.8.3/../../../../pic32mx/lib/fpu64\libpic32.a(sbrk.o)
 .data          0x00000000        0x0 c:/program files/microchip/xc32/v2.50/bin/bin/../../lib/gcc/pic32mx/4.8.3/../../../../pic32mx/lib/fpu64\libpic32.a(sbrk.o)
 .reginfo       0x00000000       0x18 c:/program files/microchip/xc32/v2.50/bin/bin/../../lib/gcc/pic32mx/4.8.3/../../../../pic32mx/lib/fpu64\libpic32.a(sbrk.o)
 .text          0x00000000        0x0 c:/program files/microchip/xc32/v2.50/bin/bin/../../lib/gcc/pic32mx/4.8.3/../../../../pic32mx/lib/fpu64\libpic32.a(_exit.o)
 .data          0x00000000        0x0 c:/program files/microchip/xc32/v2.50/bin/bin/../../lib/gcc/pic32mx/4.8.3/../../../../pic32mx/lib/fpu64\libpic32.a(_exit.o)
 .bss           0x00000000        0x0 c:/program files/microchip/xc32/v2.50/bin/bin/../../lib/gcc/pic32mx/4.8.3/../../../../pic32mx/lib/fpu64\libpic32.a(_exit.o)
 .reginfo       0x00000000       0x18 c:/program files/microchip/xc32/v2.50/bin/bin/../../lib/gcc/pic32mx/4.8.3/../../../../pic32mx/lib/fpu64\libpic32.a(_exit.o)
 .text._exit    0x00000000        0x8 c:/program files/microchip/xc32/v2.50/bin/bin/../../lib/gcc/pic32mx/4.8.3/../../../../pic32mx/lib/fpu64\libpic32.a(_exit.o)
 .text          0x00000000        0x0 c:/program files/microchip/xc32/v2.50/bin/bin/../../lib/gcc/pic32mx/4.8.3/../../../../pic32mx/lib/fpu64\libpic32.a(isatty.o)
 .data          0x00000000        0x0 c:/program files/microchip/xc32/v2.50/bin/bin/../../lib/gcc/pic32mx/4.8.3/../../../../pic32mx/lib/fpu64\libpic32.a(isatty.o)
 .bss           0x00000000        0x0 c:/program files/microchip/xc32/v2.50/bin/bin/../../lib/gcc/pic32mx/4.8.3/../../../../pic32mx/lib/fpu64\libpic32.a(isatty.o)
 .reginfo       0x00000000       0x18 c:/program files/microchip/xc32/v2.50/bin/bin/../../lib/gcc/pic32mx/4.8.3/../../../../pic32mx/lib/fpu64\libpic32.a(isatty.o)
 .text          0x00000000        0x0 c:/program files/microchip/xc32/v2.50/bin/bin/../../lib/gcc/pic32mx/4.8.3/../../../../pic32mx/lib/fpu64\libpic32.a(_mon_getc.o)
 .data          0x00000000        0x0 c:/program files/microchip/xc32/v2.50/bin/bin/../../lib/gcc/pic32mx/4.8.3/../../../../pic32mx/lib/fpu64\libpic32.a(_mon_getc.o)
 .bss           0x00000000        0x0 c:/program files/microchip/xc32/v2.50/bin/bin/../../lib/gcc/pic32mx/4.8.3/../../../../pic32mx/lib/fpu64\libpic32.a(_mon_getc.o)
 .reginfo       0x00000000       0x18 c:/program files/microchip/xc32/v2.50/bin/bin/../../lib/gcc/pic32mx/4.8.3/../../../../pic32mx/lib/fpu64\libpic32.a(_mon_getc.o)
 .text          0x00000000        0x0 c:/program files/microchip/xc32/v2.50/bin/bin/../../lib/gcc/pic32mx/4.8.3/../../../../pic32mx/lib/fpu64\libpic32.a(_mon_write.o)
 .data          0x00000000        0x0 c:/program files/microchip/xc32/v2.50/bin/bin/../../lib/gcc/pic32mx/4.8.3/../../../../pic32mx/lib/fpu64\libpic32.a(_mon_write.o)
 .bss           0x00000000        0x0 c:/program files/microchip/xc32/v2.50/bin/bin/../../lib/gcc/pic32mx/4.8.3/../../../../pic32mx/lib/fpu64\libpic32.a(_mon_write.o)
 .reginfo       0x00000000       0x18 c:/program files/microchip/xc32/v2.50/bin/bin/../../lib/gcc/pic32mx/4.8.3/../../../../pic32mx/lib/fpu64\libpic32.a(_mon_write.o)
 .text          0x00000000        0x0 c:/program files/microchip/xc32/v2.50/bin/bin/../../lib/gcc/pic32mx/4.8.3/../../../../pic32mx/lib/fpu64\libpic32.a(xc32_uart.o)
 .data          0x00000000        0x0 c:/program files/microchip/xc32/v2.50/bin/bin/../../lib/gcc/pic32mx/4.8.3/../../../../pic32mx/lib/fpu64\libpic32.a(xc32_uart.o)
 .bss           0x00000000        0x0 c:/program files/microchip/xc32/v2.50/bin/bin/../../lib/gcc/pic32mx/4.8.3/../../../../pic32mx/lib/fpu64\libpic32.a(xc32_uart.o)
 .reginfo       0x00000000       0x18 c:/program files/microchip/xc32/v2.50/bin/bin/../../lib/gcc/pic32mx/4.8.3/../../../../pic32mx/lib/fpu64\libpic32.a(xc32_uart.o)

Memory Configuration

Name             Origin             Length             Attributes
kseg1_boot_mem   0x9d000000         0x00000480
sw_version       0x9d000490         0x00000004
kseg0_program_mem 0x9d001000         0x0007f000         xr
kseg0_boot_mem   0x9d0004b0         0x00000000
start_BFC00000   0x9fc00000         0x00000010         xr
kseg1_boot_mem_4B0 0x9d0004b0         0x00000b50
config_BFC0FF40  0xbfc0ff40         0x00000004
config_BFC0FF44  0xbfc0ff44         0x00000004
config_BFC0FF48  0xbfc0ff48         0x00000004
config_BFC0FF4C  0xbfc0ff4c         0x00000004
config_BFC0FF50  0xbfc0ff50         0x00000004
config_BFC0FF54  0xbfc0ff54         0x00000004
config_BFC0FF58  0xbfc0ff58         0x00000004
config_BFC0FF5C  0xbfc0ff5c         0x00000004
config_BFC0FF60  0xbfc0ff60         0x00000004
config_BFC0FF64  0xbfc0ff64         0x00000004
config_BFC0FF68  0xbfc0ff68         0x00000004
config_BFC0FF6C  0xbfc0ff6c         0x00000004
config_BFC0FF70  0xbfc0ff70         0x00000004
config_BFC0FF74  0xbfc0ff74         0x00000004
config_BFC0FF78  0xbfc0ff78         0x00000004
config_BFC0FF7C  0xbfc0ff7c         0x00000004
config_BFC0FFC0  0xbfc0ffc0         0x00000004
config_BFC0FFC4  0xbfc0ffc4         0x00000004
config_BFC0FFC8  0xbfc0ffc8         0x00000004
config_BFC0FFCC  0xbfc0ffcc         0x00000004
config_BFC0FFD0  0xbfc0ffd0         0x00000004
config_BFC0FFD4  0xbfc0ffd4         0x00000004
config_BFC0FFD8  0xbfc0ffd8         0x00000004
config_BFC0FFDC  0xbfc0ffdc         0x00000004
config_BFC0FFE0  0xbfc0ffe0         0x00000004
config_BFC0FFE4  0xbfc0ffe4         0x00000004
config_BFC0FFE8  0xbfc0ffe8         0x00000004
config_BFC0FFEC  0xbfc0ffec         0x00000004
config_BFC0FFF0  0xbfc0fff0         0x00000004
config_BFC0FFF4  0xbfc0fff4         0x00000004
config_BFC0FFF8  0xbfc0fff8         0x00000004
config_BFC0FFFC  0xbfc0fffc         0x00000004
config_BFC4FF40  0xbfc4ff40         0x00000004
config_BFC4FF44  0xbfc4ff44         0x00000004
config_BFC4FF48  0xbfc4ff48         0x00000004
config_BFC4FF4C  0xbfc4ff4c         0x00000004
config_BFC4FF50  0xbfc4ff50         0x00000004
config_BFC4FF54  0xbfc4ff54         0x00000004
config_BFC4FF58  0xbfc4ff58         0x00000004
config_BFC4FF5C  0xbfc4ff5c         0x00000004
config_BFC4FF60  0xbfc4ff60         0x00000004
config_BFC4FF64  0xbfc4ff64         0x00000004
config_BFC4FF68  0xbfc4ff68         0x00000004
config_BFC4FF6C  0xbfc4ff6c         0x00000004
config_BFC4FF70  0xbfc4ff70         0x00000004
config_BFC4FF74  0xbfc4ff74         0x00000004
config_BFC4FF78  0xbfc4ff78         0x00000004
config_BFC4FF7C  0xbfc4ff7c         0x00000004
config_BFC4FFC0  0xbfc4ffc0         0x00000004
config_BFC4FFC4  0xbfc4ffc4         0x00000004
config_BFC4FFC8  0xbfc4ffc8         0x00000004
config_BFC4FFCC  0xbfc4ffcc         0x00000004
config_BFC4FFD0  0xbfc4ffd0         0x00000004
config_BFC4FFD4  0xbfc4ffd4         0x00000004
config_BFC4FFD8  0xbfc4ffd8         0x00000004
config_BFC4FFDC  0xbfc4ffdc         0x00000004
config_BFC4FFE0  0xbfc4ffe0         0x00000004
config_BFC4FFE4  0xbfc4ffe4         0x00000004
config_BFC4FFE8  0xbfc4ffe8         0x00000004
config_BFC4FFEC  0xbfc4ffec         0x00000004
config_BFC4FFF0  0xbfc4fff0         0x00000004
config_BFC4FFF4  0xbfc4fff4         0x00000004
config_BFC4FFF8  0xbfc4fff8         0x00000004
config_BFC4FFFC  0xbfc4fffc         0x00000004
config_BFC54000  0xbfc54000         0x00000004
config_BFC54004  0xbfc54004         0x00000004
config_BFC54008  0xbfc54008         0x00000004
config_BFC5400C  0xbfc5400c         0x00000004
config_BFC54010  0xbfc54010         0x00000004
config_BFC54020  0xbfc54020         0x00000004
config_BFC54024  0xbfc54024         0x00000004
config_BFC6FF40  0xbfc6ff40         0x00000004
config_BFC6FF44  0xbfc6ff44         0x00000004
config_BFC6FF48  0xbfc6ff48         0x00000004
config_BFC6FF4C  0xbfc6ff4c         0x00000004
config_BFC6FF50  0xbfc6ff50         0x00000004
config_BFC6FF54  0xbfc6ff54         0x00000004
config_BFC6FF58  0xbfc6ff58         0x00000004
config_BFC6FF5C  0xbfc6ff5c         0x00000004
config_BFC6FF60  0xbfc6ff60         0x00000004
config_BFC6FF64  0xbfc6ff64         0x00000004
config_BFC6FF68  0xbfc6ff68         0x00000004
config_BFC6FF6C  0xbfc6ff6c         0x00000004
config_BFC6FF70  0xbfc6ff70         0x00000004
config_BFC6FF74  0xbfc6ff74         0x00000004
config_BFC6FF78  0xbfc6ff78         0x00000004
config_BFC6FF7C  0xbfc6ff7c         0x00000004
config_BFC6FFC0  0xbfc6ffc0         0x00000004
config_BFC6FFC4  0xbfc6ffc4         0x00000004
config_BFC6FFC8  0xbfc6ffc8         0x00000004
config_BFC6FFCC  0xbfc6ffcc         0x00000004
config_BFC6FFD0  0xbfc6ffd0         0x00000004
config_BFC6FFD4  0xbfc6ffd4         0x00000004
config_BFC6FFD8  0xbfc6ffd8         0x00000004
config_BFC6FFDC  0xbfc6ffdc         0x00000004
config_BFC6FFE0  0xbfc6ffe0         0x00000004
config_BFC6FFE4  0xbfc6ffe4         0x00000004
config_BFC6FFE8  0xbfc6ffe8         0x00000004
config_BFC6FFEC  0xbfc6ffec         0x00000004
config_BFC6FFF0  0xbfc6fff0         0x00000004
config_BFC6FFF4  0xbfc6fff4         0x00000004
config_BFC6FFF8  0xbfc6fff8         0x00000004
config_BFC6FFFC  0xbfc6fffc         0x00000004
dev_config       0xbfc20000         0x00004000
configsfrs_BFC0FF40 0xbfc0ff40         0x00000040
configsfrs_BFC0FFC0 0xbfc0ffc0         0x00000040
configsfrs_BFC4FF40 0xbfc4ff40         0x00000040
configsfrs_BFC4FFC0 0xbfc4ffc0         0x00000040
configsfrs_BFC54000 0xbfc54000         0x00000014
configsfrs_BFC54020 0xbfc54020         0x00000008
configsfrs_BFC6FF40 0xbfc6ff40         0x00000040
configsfrs_BFC6FFC0 0xbfc6ffc0         0x00000040
kseg0_data_mem   0x80000000         0x00080000         w !x
sfrs             0xbf800000         0x00100000
kseg2_ebi_data_mem 0xc0000000         0x04000000
kseg2_sqi_data_mem 0xd0000000         0x04000000
kseg3_ebi_data_mem 0xe0000000         0x04000000
kseg3_sqi_data_mem 0xf0000000         0x04000000
*default*        0x00000000         0xffffffff

Linker script and memory map

LOAD c:/program files/microchip/xc32/v2.50/bin/bin/../../lib/gcc/pic32mx/4.8.3/../../../../pic32mx/lib/fpu64\debug-exception-return.o
LOAD build/TEST/production/_ext/744274812/chrono.o
LOAD build/TEST/production/_ext/816358189/ad5641.o
LOAD build/TEST/production/_ext/2070436302/dio.o
LOAD build/TEST/production/_ext/2070436302/genclk.o
LOAD build/TEST/production/_ext/2070436302/relay.o
LOAD build/TEST/production/_ext/2070436302/unisequencer.o
LOAD build/TEST/production/_ext/2070436302/mod_pwm.o
LOAD build/TEST/production/_ext/2070436302/mod_spi.o
LOAD build/TEST/production/_ext/2070436302/mod_swspi.o
LOAD build/TEST/production/_ext/2070436302/mod_i2c.o
LOAD build/TEST/production/_ext/2070436302/aout.o
LOAD build/TEST/production/_ext/2070436302/ain.o
LOAD build/TEST/production/_ext/2070436302/scanchain.o
LOAD build/TEST/production/_ext/2070436302/intadc.o
LOAD build/TEST/production/_ext/2070436302/mod_refclk.o
LOAD build/TEST/production/_ext/2070436302/cap.o
LOAD build/TEST/production/_ext/801483606/app.o
LOAD build/TEST/production/_ext/801483606/on_parameter_found.o
LOAD build/TEST/production/_ext/1537666708/board.o
LOAD build/TEST/production/_ext/1509319821/adc.o
LOAD build/TEST/production/_ext/1509317981/can.o
LOAD build/TEST/production/_ext/455916380/gpio.o
LOAD build/TEST/production/_ext/1509311806/int.o
LOAD build/TEST/production/_ext/1255152928/nvm.o
LOAD build/TEST/production/_ext/1509304807/pwm.o
LOAD build/TEST/production/_ext/353641468/refclk.o
LOAD build/TEST/production/_ext/1509302145/spi.o
LOAD build/TEST/production/_ext/1509302145/swspi.o
LOAD build/TEST/production/_ext/401144697/systmr.o
LOAD build/TEST/production/_ext/1261517080/usart.o
LOAD build/TEST/production/_ext/1509298662/wdt.o
LOAD build/TEST/production/_ext/210424401/rd_buffer.o
LOAD build/TEST/production/_ext/210424401/parser.o
LOAD build/TEST/production/_ext/210424401/string_utils.o
LOAD build/TEST/production/_ext/783894060/planner.o
LOAD build/TEST/production/_ext/73441385/system_exceptions.o
LOAD build/TEST/production/_ext/73441385/system_init.o
LOAD build/TEST/production/_ext/73441385/system_dbg.o
LOAD build/TEST/production/_ext/73441385/system_time.o
LOAD build/TEST/production/_ext/73441385/system_config.o
LOAD build/TEST/production/_ext/73441385/system_comm.o
LOAD build/TEST/production/_ext/73441385/system_error.o
LOAD build/TEST/production/_ext/73441385/crc.o
LOAD build/TEST/production/_ext/1360937237/main.o
                0x00000001                __MPLAB_BUILD = 0x1
LOAD c:/program files/microchip/xc32/v2.50/bin/bin/../../lib/gcc/pic32mx/4.8.3/../../../../pic32mx/lib/./proc/32MZ1024EFH100\processor.o
START GROUP
LOAD libmchp_peripheral.a
END GROUP
START GROUP
LOAD c:/program files/microchip/xc32/v2.50/bin/bin/../../lib/gcc/pic32mx/4.8.3/../../../../pic32mx/lib/./proc/32MZ1024EFH100\vector_offset_init.o
END GROUP
                0x00000001                PROVIDE (_vector_spacing, 0x1)
                0x9d001000                PROVIDE (_ebase_address, 0x9d001000)
                0xbfc00380                _BEV_EXCPT_ADDR = 0xbfc00380
                0xbfc00480                _DBG_EXCPT_ADDR = 0xbfc00480
                0x9d000000                _RESET_ADDR = 0x9d000000
                0x9d001000                _SIMPLE_TLB_REFILL_EXCPT_ADDR = (_ebase_address + 0x0)
                0x9d001100                _CACHE_ERR_EXCPT_ADDR = (_ebase_address + 0x100)
                0x9d001180                _GEN_EXCPT_ADDR = (_ebase_address + 0x180)

.sw_version     0x9d000490        0x4
 *(.sw_version)
 .sw_version    0x9d000490        0x4 build/TEST/production/_ext/801483606/app.o
                0x9d000490                VERSION

.dev_config
 *(.dev_config)

.start_BFC00000
                0x9fc00000       0x10
 *(.start_BFC00000)
 .start_BFC00000
                0x9fc00000       0x10 build/TEST/production/_ext/1360937237/main.o
                0x9fc00000                start_app

.config_BFC0FF40
 *(.config_BFC0FF40)

.config_BFC0FF44
 *(.config_BFC0FF44)

.config_BFC0FF48
 *(.config_BFC0FF48)

.config_BFC0FF4C
 *(.config_BFC0FF4C)

.config_BFC0FF50
 *(.config_BFC0FF50)

.config_BFC0FF54
 *(.config_BFC0FF54)

.config_BFC0FF58
 *(.config_BFC0FF58)

.config_BFC0FF5C
 *(.config_BFC0FF5C)

.config_BFC0FF60
 *(.config_BFC0FF60)

.config_BFC0FF64
 *(.config_BFC0FF64)

.config_BFC0FF68
 *(.config_BFC0FF68)

.config_BFC0FF6C
 *(.config_BFC0FF6C)

.config_BFC0FF70
 *(.config_BFC0FF70)

.config_BFC0FF74
 *(.config_BFC0FF74)

.config_BFC0FF78
 *(.config_BFC0FF78)

.config_BFC0FF7C
 *(.config_BFC0FF7C)

.config_BFC0FFC0
                0xbfc0ffc0        0x4
 *(.config_BFC0FFC0)
 .config_BFC0FFC0
                0xbfc0ffc0        0x4 build/TEST/production/_ext/1537666708/board.o

.config_BFC0FFC4
                0xbfc0ffc4        0x4
 *(.config_BFC0FFC4)
 .config_BFC0FFC4
                0xbfc0ffc4        0x4 build/TEST/production/_ext/1537666708/board.o

.config_BFC0FFC8
                0xbfc0ffc8        0x4
 *(.config_BFC0FFC8)
 .config_BFC0FFC8
                0xbfc0ffc8        0x4 build/TEST/production/_ext/1537666708/board.o

.config_BFC0FFCC
                0xbfc0ffcc        0x4
 *(.config_BFC0FFCC)
 .config_BFC0FFCC
                0xbfc0ffcc        0x4 build/TEST/production/_ext/1537666708/board.o

.config_BFC0FFD0
 *(.config_BFC0FFD0)

.config_BFC0FFD4
 *(.config_BFC0FFD4)

.config_BFC0FFD8
 *(.config_BFC0FFD8)

.config_BFC0FFDC
                0xbfc0ffdc        0x4
 *(.config_BFC0FFDC)
 .config_BFC0FFDC
                0xbfc0ffdc        0x4 build/TEST/production/_ext/1537666708/board.o

.config_BFC0FFE0
 *(.config_BFC0FFE0)

.config_BFC0FFE4
 *(.config_BFC0FFE4)

.config_BFC0FFE8
 *(.config_BFC0FFE8)

.config_BFC0FFEC
 *(.config_BFC0FFEC)

.config_BFC0FFF0
 *(.config_BFC0FFF0)

.config_BFC0FFF4
 *(.config_BFC0FFF4)

.config_BFC0FFF8
 *(.config_BFC0FFF8)

.config_BFC0FFFC
 *(.config_BFC0FFFC)

.config_BFC4FF40
 *(.config_BFC4FF40)

.config_BFC4FF44
 *(.config_BFC4FF44)

.config_BFC4FF48
 *(.config_BFC4FF48)

.config_BFC4FF4C
 *(.config_BFC4FF4C)

.config_BFC4FF50
 *(.config_BFC4FF50)

.config_BFC4FF54
 *(.config_BFC4FF54)

.config_BFC4FF58
 *(.config_BFC4FF58)

.config_BFC4FF5C
 *(.config_BFC4FF5C)

.config_BFC4FF60
 *(.config_BFC4FF60)

.config_BFC4FF64
 *(.config_BFC4FF64)

.config_BFC4FF68
 *(.config_BFC4FF68)

.config_BFC4FF6C
 *(.config_BFC4FF6C)

.config_BFC4FF70
 *(.config_BFC4FF70)

.config_BFC4FF74
 *(.config_BFC4FF74)

.config_BFC4FF78
 *(.config_BFC4FF78)

.config_BFC4FF7C
 *(.config_BFC4FF7C)

.config_BFC4FFC0
 *(.config_BFC4FFC0)

.config_BFC4FFC4
 *(.config_BFC4FFC4)

.config_BFC4FFC8
 *(.config_BFC4FFC8)

.config_BFC4FFCC
 *(.config_BFC4FFCC)

.config_BFC4FFD0
 *(.config_BFC4FFD0)

.config_BFC4FFD4
 *(.config_BFC4FFD4)

.config_BFC4FFD8
 *(.config_BFC4FFD8)

.config_BFC4FFDC
 *(.config_BFC4FFDC)

.config_BFC4FFE0
 *(.config_BFC4FFE0)

.config_BFC4FFE4
 *(.config_BFC4FFE4)

.config_BFC4FFE8
 *(.config_BFC4FFE8)

.config_BFC4FFEC
 *(.config_BFC4FFEC)

.config_BFC4FFF0
 *(.config_BFC4FFF0)

.config_BFC4FFF4
 *(.config_BFC4FFF4)

.config_BFC4FFF8
 *(.config_BFC4FFF8)

.config_BFC4FFFC
 *(.config_BFC4FFFC)

.config_BFC54000
 *(.config_BFC54000)

.config_BFC54004
 *(.config_BFC54004)

.config_BFC54008
 *(.config_BFC54008)

.config_BFC5400C
 *(.config_BFC5400C)

.config_BFC54010
 *(.config_BFC54010)

.config_BFC54020
 *(.config_BFC54020)

.config_BFC54024
 *(.config_BFC54024)

.config_BFC6FF40
 *(.config_BFC6FF40)

.config_BFC6FF44
 *(.config_BFC6FF44)

.config_BFC6FF48
 *(.config_BFC6FF48)

.config_BFC6FF4C
 *(.config_BFC6FF4C)

.config_BFC6FF50
 *(.config_BFC6FF50)

.config_BFC6FF54
 *(.config_BFC6FF54)

.config_BFC6FF58
 *(.config_BFC6FF58)

.config_BFC6FF5C
 *(.config_BFC6FF5C)

.config_BFC6FF60
 *(.config_BFC6FF60)

.config_BFC6FF64
 *(.config_BFC6FF64)

.config_BFC6FF68
 *(.config_BFC6FF68)

.config_BFC6FF6C
 *(.config_BFC6FF6C)

.config_BFC6FF70
 *(.config_BFC6FF70)

.config_BFC6FF74
 *(.config_BFC6FF74)

.config_BFC6FF78
 *(.config_BFC6FF78)

.config_BFC6FF7C
 *(.config_BFC6FF7C)

.config_BFC6FFC0
 *(.config_BFC6FFC0)

.config_BFC6FFC4
 *(.config_BFC6FFC4)

.config_BFC6FFC8
 *(.config_BFC6FFC8)

.config_BFC6FFCC
 *(.config_BFC6FFCC)

.config_BFC6FFD0
 *(.config_BFC6FFD0)

.config_BFC6FFD4
 *(.config_BFC6FFD4)

.config_BFC6FFD8
 *(.config_BFC6FFD8)

.config_BFC6FFDC
 *(.config_BFC6FFDC)

.config_BFC6FFE0
 *(.config_BFC6FFE0)

.config_BFC6FFE4
 *(.config_BFC6FFE4)

.config_BFC6FFE8
 *(.config_BFC6FFE8)

.config_BFC6FFEC
 *(.config_BFC6FFEC)

.config_BFC6FFF0
 *(.config_BFC6FFF0)

.config_BFC6FFF4
 *(.config_BFC6FFF4)

.config_BFC6FFF8
 *(.config_BFC6FFF8)

.config_BFC6FFFC
 *(.config_BFC6FFFC)

.reset          0x9d000000      0x1b4
 *(.reset)
 .reset         0x9d000000       0x18 C:\Users\fg67bz\AppData\Local\Temp\ccOypprZ.o
                0x9d000000                _reset
 *(.reset.startup)
 .reset.startup
                0x9d000018      0x19c C:\Users\fg67bz\AppData\Local\Temp\ccOypprZ.o
                0x9d000018                _startup

.bev_excpt      0xbfc00380       0x10
 *(.bev_handler)
 .bev_handler   0xbfc00380       0x10 C:\Users\fg67bz\AppData\Local\Temp\ccOypprZ.o

.cache_init     0x9d0004b0      0x1c0
 *(.cache_init)
 *(.cache_init.*)
 .cache_init.cache
                0x9d0004b0       0xc0 c:/program files/microchip/xc32/v2.50/bin/bin/../../lib/gcc/pic32mx/4.8.3/../../../../pic32mx/lib/fpu64\libpic32.a(pic32_init_cache.o)
 .cache_init.pic32_init_cache
                0x9d000570      0x100 c:/program files/microchip/xc32/v2.50/bin/bin/../../lib/gcc/pic32mx/4.8.3/../../../../pic32mx/lib/fpu64\libpic32.a(pic32_init_cache.o)
                0x9d000570                __pic32_init_cache

.simple_tlb_refill_excpt
                0x9d001000       0x10
 *(.simple_tlb_refill_vector)
 .simple_tlb_refill_vector
                0x9d001000       0x10 C:\Users\fg67bz\AppData\Local\Temp\ccOypprZ.o

.cache_err_excpt
                0x9d001100       0x10
 *(.cache_err_vector)
 .cache_err_vector
                0x9d001100       0x10 C:\Users\fg67bz\AppData\Local\Temp\ccOypprZ.o

.app_excpt      0x9d001180       0x10
 *(.gen_handler)
 .gen_handler   0x9d001180       0x10 C:\Users\fg67bz\AppData\Local\Temp\ccOypprZ.o

.vectors        0x9d001200       0x58
                0x00000210                __vector_offset_0 = DEFINED (__vector_dispatch_0)?(. - _ebase_address):__vector_offset_default
 *(.vector_0)
                0x00000210                __vector_offset_1 = DEFINED (__vector_dispatch_1)?(. - _ebase_address):__vector_offset_default
 *(.vector_1)
                0x00000210                __vector_offset_2 = DEFINED (__vector_dispatch_2)?(. - _ebase_address):__vector_offset_default
 *(.vector_2)
                0x00000210                __vector_offset_3 = DEFINED (__vector_dispatch_3)?(. - _ebase_address):__vector_offset_default
 *(.vector_3)
                0x00000200                __vector_offset_4 = DEFINED (__vector_dispatch_4)?(. - _ebase_address):__vector_offset_default
 *(.vector_4)
 .vector_4      0x9d001200        0x8 build/TEST/production/_ext/783894060/planner.o
                0x9d001200                __vector_dispatch_4
                0x00000210                __vector_offset_5 = DEFINED (__vector_dispatch_5)?(. - _ebase_address):__vector_offset_default
 *(.vector_5)
                0x00000210                __vector_offset_6 = DEFINED (__vector_dispatch_6)?(. - _ebase_address):__vector_offset_default
 *(.vector_6)
                0x00000210                __vector_offset_7 = DEFINED (__vector_dispatch_7)?(. - _ebase_address):__vector_offset_default
 *(.vector_7)
                0x00000210                __vector_offset_8 = DEFINED (__vector_dispatch_8)?(. - _ebase_address):__vector_offset_default
 *(.vector_8)
                0x00000210                __vector_offset_9 = DEFINED (__vector_dispatch_9)?(. - _ebase_address):__vector_offset_default
 *(.vector_9)
                0x00000210                __vector_offset_10 = DEFINED (__vector_dispatch_10)?(. - _ebase_address):__vector_offset_default
 *(.vector_10)
                0x00000210                __vector_offset_11 = DEFINED (__vector_dispatch_11)?(. - _ebase_address):__vector_offset_default
 *(.vector_11)
                0x00000210                __vector_offset_12 = DEFINED (__vector_dispatch_12)?(. - _ebase_address):__vector_offset_default
 *(.vector_12)
                0x00000210                __vector_offset_13 = DEFINED (__vector_dispatch_13)?(. - _ebase_address):__vector_offset_default
 *(.vector_13)
                0x00000210                __vector_offset_14 = DEFINED (__vector_dispatch_14)?(. - _ebase_address):__vector_offset_default
 *(.vector_14)
                0x00000210                __vector_offset_15 = DEFINED (__vector_dispatch_15)?(. - _ebase_address):__vector_offset_default
 *(.vector_15)
                0x00000210                __vector_offset_16 = DEFINED (__vector_dispatch_16)?(. - _ebase_address):__vector_offset_default
 *(.vector_16)
                0x00000210                __vector_offset_17 = DEFINED (__vector_dispatch_17)?(. - _ebase_address):__vector_offset_default
 *(.vector_17)
                0x00000210                __vector_offset_18 = DEFINED (__vector_dispatch_18)?(. - _ebase_address):__vector_offset_default
 *(.vector_18)
                0x00000210                __vector_offset_19 = DEFINED (__vector_dispatch_19)?(. - _ebase_address):__vector_offset_default
 *(.vector_19)
                0x00000210                __vector_offset_20 = DEFINED (__vector_dispatch_20)?(. - _ebase_address):__vector_offset_default
 *(.vector_20)
                0x00000210                __vector_offset_21 = DEFINED (__vector_dispatch_21)?(. - _ebase_address):__vector_offset_default
 *(.vector_21)
                0x00000210                __vector_offset_22 = DEFINED (__vector_dispatch_22)?(. - _ebase_address):__vector_offset_default
 *(.vector_22)
                0x00000210                __vector_offset_23 = DEFINED (__vector_dispatch_23)?(. - _ebase_address):__vector_offset_default
 *(.vector_23)
                0x00000210                __vector_offset_24 = DEFINED (__vector_dispatch_24)?(. - _ebase_address):__vector_offset_default
 *(.vector_24)
                0x00000210                __vector_offset_25 = DEFINED (__vector_dispatch_25)?(. - _ebase_address):__vector_offset_default
 *(.vector_25)
                0x00000210                __vector_offset_26 = DEFINED (__vector_dispatch_26)?(. - _ebase_address):__vector_offset_default
 *(.vector_26)
                0x00000210                __vector_offset_27 = DEFINED (__vector_dispatch_27)?(. - _ebase_address):__vector_offset_default
 *(.vector_27)
                0x00000210                __vector_offset_28 = DEFINED (__vector_dispatch_28)?(. - _ebase_address):__vector_offset_default
 *(.vector_28)
                0x00000210                __vector_offset_29 = DEFINED (__vector_dispatch_29)?(. - _ebase_address):__vector_offset_default
 *(.vector_29)
                0x00000210                __vector_offset_30 = DEFINED (__vector_dispatch_30)?(. - _ebase_address):__vector_offset_default
 *(.vector_30)
                0x00000210                __vector_offset_31 = DEFINED (__vector_dispatch_31)?(. - _ebase_address):__vector_offset_default
 *(.vector_31)
                0x00000210                __vector_offset_32 = DEFINED (__vector_dispatch_32)?(. - _ebase_address):__vector_offset_default
 *(.vector_32)
                0x00000210                __vector_offset_33 = DEFINED (__vector_dispatch_33)?(. - _ebase_address):__vector_offset_default
 *(.vector_33)
                0x00000210                __vector_offset_34 = DEFINED (__vector_dispatch_34)?(. - _ebase_address):__vector_offset_default
 *(.vector_34)
                0x00000210                __vector_offset_35 = DEFINED (__vector_dispatch_35)?(. - _ebase_address):__vector_offset_default
 *(.vector_35)
                0x00000210                __vector_offset_36 = DEFINED (__vector_dispatch_36)?(. - _ebase_address):__vector_offset_default
 *(.vector_36)
                0x00000210                __vector_offset_37 = DEFINED (__vector_dispatch_37)?(. - _ebase_address):__vector_offset_default
 *(.vector_37)
                0x00000210                __vector_offset_38 = DEFINED (__vector_dispatch_38)?(. - _ebase_address):__vector_offset_default
 *(.vector_38)
                0x00000210                __vector_offset_39 = DEFINED (__vector_dispatch_39)?(. - _ebase_address):__vector_offset_default
 *(.vector_39)
                0x00000210                __vector_offset_40 = DEFINED (__vector_dispatch_40)?(. - _ebase_address):__vector_offset_default
 *(.vector_40)
                0x00000210                __vector_offset_41 = DEFINED (__vector_dispatch_41)?(. - _ebase_address):__vector_offset_default
 *(.vector_41)
                0x00000210                __vector_offset_42 = DEFINED (__vector_dispatch_42)?(. - _ebase_address):__vector_offset_default
 *(.vector_42)
                0x00000210                __vector_offset_43 = DEFINED (__vector_dispatch_43)?(. - _ebase_address):__vector_offset_default
 *(.vector_43)
                0x00000210                __vector_offset_44 = DEFINED (__vector_dispatch_44)?(. - _ebase_address):__vector_offset_default
 *(.vector_44)
                0x00000210                __vector_offset_45 = DEFINED (__vector_dispatch_45)?(. - _ebase_address):__vector_offset_default
 *(.vector_45)
                0x00000210                __vector_offset_46 = DEFINED (__vector_dispatch_46)?(. - _ebase_address):__vector_offset_default
 *(.vector_46)
                0x00000210                __vector_offset_47 = DEFINED (__vector_dispatch_47)?(. - _ebase_address):__vector_offset_default
 *(.vector_47)
                0x00000210                __vector_offset_48 = DEFINED (__vector_dispatch_48)?(. - _ebase_address):__vector_offset_default
 *(.vector_48)
                0x00000210                __vector_offset_49 = DEFINED (__vector_dispatch_49)?(. - _ebase_address):__vector_offset_default
 *(.vector_49)
                0x00000210                __vector_offset_50 = DEFINED (__vector_dispatch_50)?(. - _ebase_address):__vector_offset_default
 *(.vector_50)
                0x00000210                __vector_offset_51 = DEFINED (__vector_dispatch_51)?(. - _ebase_address):__vector_offset_default
 *(.vector_51)
                0x00000210                __vector_offset_52 = DEFINED (__vector_dispatch_52)?(. - _ebase_address):__vector_offset_default
 *(.vector_52)
                0x00000210                __vector_offset_53 = DEFINED (__vector_dispatch_53)?(. - _ebase_address):__vector_offset_default
 *(.vector_53)
                0x00000210                __vector_offset_54 = DEFINED (__vector_dispatch_54)?(. - _ebase_address):__vector_offset_default
 *(.vector_54)
                0x00000210                __vector_offset_55 = DEFINED (__vector_dispatch_55)?(. - _ebase_address):__vector_offset_default
 *(.vector_55)
                0x00000210                __vector_offset_56 = DEFINED (__vector_dispatch_56)?(. - _ebase_address):__vector_offset_default
 *(.vector_56)
                0x00000210                __vector_offset_57 = DEFINED (__vector_dispatch_57)?(. - _ebase_address):__vector_offset_default
 *(.vector_57)
                0x00000210                __vector_offset_58 = DEFINED (__vector_dispatch_58)?(. - _ebase_address):__vector_offset_default
 *(.vector_58)
                0x00000210                __vector_offset_59 = DEFINED (__vector_dispatch_59)?(. - _ebase_address):__vector_offset_default
 *(.vector_59)
                0x00000210                __vector_offset_60 = DEFINED (__vector_dispatch_60)?(. - _ebase_address):__vector_offset_default
 *(.vector_60)
                0x00000210                __vector_offset_61 = DEFINED (__vector_dispatch_61)?(. - _ebase_address):__vector_offset_default
 *(.vector_61)
                0x00000210                __vector_offset_62 = DEFINED (__vector_dispatch_62)?(. - _ebase_address):__vector_offset_default
 *(.vector_62)
                0x00000210                __vector_offset_63 = DEFINED (__vector_dispatch_63)?(. - _ebase_address):__vector_offset_default
 *(.vector_63)
                0x00000210                __vector_offset_64 = DEFINED (__vector_dispatch_64)?(. - _ebase_address):__vector_offset_default
 *(.vector_64)
                0x00000210                __vector_offset_65 = DEFINED (__vector_dispatch_65)?(. - _ebase_address):__vector_offset_default
 *(.vector_65)
                0x00000210                __vector_offset_66 = DEFINED (__vector_dispatch_66)?(. - _ebase_address):__vector_offset_default
 *(.vector_66)
                0x00000210                __vector_offset_67 = DEFINED (__vector_dispatch_67)?(. - _ebase_address):__vector_offset_default
 *(.vector_67)
                0x00000210                __vector_offset_68 = DEFINED (__vector_dispatch_68)?(. - _ebase_address):__vector_offset_default
 *(.vector_68)
                0x00000210                __vector_offset_69 = DEFINED (__vector_dispatch_69)?(. - _ebase_address):__vector_offset_default
 *(.vector_69)
                0x00000210                __vector_offset_70 = DEFINED (__vector_dispatch_70)?(. - _ebase_address):__vector_offset_default
 *(.vector_70)
                0x00000210                __vector_offset_71 = DEFINED (__vector_dispatch_71)?(. - _ebase_address):__vector_offset_default
 *(.vector_71)
                0x00000210                __vector_offset_72 = DEFINED (__vector_dispatch_72)?(. - _ebase_address):__vector_offset_default
 *(.vector_72)
                0x00000210                __vector_offset_73 = DEFINED (__vector_dispatch_73)?(. - _ebase_address):__vector_offset_default
 *(.vector_73)
                0x00000210                __vector_offset_74 = DEFINED (__vector_dispatch_74)?(. - _ebase_address):__vector_offset_default
 *(.vector_74)
                0x00000210                __vector_offset_75 = DEFINED (__vector_dispatch_75)?(. - _ebase_address):__vector_offset_default
 *(.vector_75)
                0x00000210                __vector_offset_76 = DEFINED (__vector_dispatch_76)?(. - _ebase_address):__vector_offset_default
 *(.vector_76)
                0x00000210                __vector_offset_77 = DEFINED (__vector_dispatch_77)?(. - _ebase_address):__vector_offset_default
 *(.vector_77)
                0x00000210                __vector_offset_78 = DEFINED (__vector_dispatch_78)?(. - _ebase_address):__vector_offset_default
 *(.vector_78)
                0x00000210                __vector_offset_79 = DEFINED (__vector_dispatch_79)?(. - _ebase_address):__vector_offset_default
 *(.vector_79)
                0x00000210                __vector_offset_80 = DEFINED (__vector_dispatch_80)?(. - _ebase_address):__vector_offset_default
 *(.vector_80)
                0x00000210                __vector_offset_81 = DEFINED (__vector_dispatch_81)?(. - _ebase_address):__vector_offset_default
 *(.vector_81)
                0x00000210                __vector_offset_82 = DEFINED (__vector_dispatch_82)?(. - _ebase_address):__vector_offset_default
 *(.vector_82)
                0x00000210                __vector_offset_83 = DEFINED (__vector_dispatch_83)?(. - _ebase_address):__vector_offset_default
 *(.vector_83)
                0x00000210                __vector_offset_84 = DEFINED (__vector_dispatch_84)?(. - _ebase_address):__vector_offset_default
 *(.vector_84)
                0x00000210                __vector_offset_85 = DEFINED (__vector_dispatch_85)?(. - _ebase_address):__vector_offset_default
 *(.vector_85)
                0x00000210                __vector_offset_86 = DEFINED (__vector_dispatch_86)?(. - _ebase_address):__vector_offset_default
 *(.vector_86)
                0x00000210                __vector_offset_87 = DEFINED (__vector_dispatch_87)?(. - _ebase_address):__vector_offset_default
 *(.vector_87)
                0x00000210                __vector_offset_88 = DEFINED (__vector_dispatch_88)?(. - _ebase_address):__vector_offset_default
 *(.vector_88)
                0x00000210                __vector_offset_89 = DEFINED (__vector_dispatch_89)?(. - _ebase_address):__vector_offset_default
 *(.vector_89)
                0x00000210                __vector_offset_90 = DEFINED (__vector_dispatch_90)?(. - _ebase_address):__vector_offset_default
 *(.vector_90)
                0x00000210                __vector_offset_91 = DEFINED (__vector_dispatch_91)?(. - _ebase_address):__vector_offset_default
 *(.vector_91)
                0x00000210                __vector_offset_92 = DEFINED (__vector_dispatch_92)?(. - _ebase_address):__vector_offset_default
 *(.vector_92)
                0x00000210                __vector_offset_93 = DEFINED (__vector_dispatch_93)?(. - _ebase_address):__vector_offset_default
 *(.vector_93)
                0x00000210                __vector_offset_94 = DEFINED (__vector_dispatch_94)?(. - _ebase_address):__vector_offset_default
 *(.vector_94)
                0x00000210                __vector_offset_95 = DEFINED (__vector_dispatch_95)?(. - _ebase_address):__vector_offset_default
 *(.vector_95)
                0x00000210                __vector_offset_96 = DEFINED (__vector_dispatch_96)?(. - _ebase_address):__vector_offset_default
 *(.vector_96)
                0x00000210                __vector_offset_97 = DEFINED (__vector_dispatch_97)?(. - _ebase_address):__vector_offset_default
 *(.vector_97)
                0x00000210                __vector_offset_98 = DEFINED (__vector_dispatch_98)?(. - _ebase_address):__vector_offset_default
 *(.vector_98)
                0x00000210                __vector_offset_99 = DEFINED (__vector_dispatch_99)?(. - _ebase_address):__vector_offset_default
 *(.vector_99)
                0x00000210                __vector_offset_100 = DEFINED (__vector_dispatch_100)?(. - _ebase_address):__vector_offset_default
 *(.vector_100)
                0x00000210                __vector_offset_101 = DEFINED (__vector_dispatch_101)?(. - _ebase_address):__vector_offset_default
 *(.vector_101)
                0x00000210                __vector_offset_102 = DEFINED (__vector_dispatch_102)?(. - _ebase_address):__vector_offset_default
 *(.vector_102)
                0x00000210                __vector_offset_103 = DEFINED (__vector_dispatch_103)?(. - _ebase_address):__vector_offset_default
 *(.vector_103)
                0x00000210                __vector_offset_104 = DEFINED (__vector_dispatch_104)?(. - _ebase_address):__vector_offset_default
 *(.vector_104)
                0x00000210                __vector_offset_105 = DEFINED (__vector_dispatch_105)?(. - _ebase_address):__vector_offset_default
 *(.vector_105)
                0x00000210                __vector_offset_106 = DEFINED (__vector_dispatch_106)?(. - _ebase_address):__vector_offset_default
 *(.vector_106)
                0x00000210                __vector_offset_107 = DEFINED (__vector_dispatch_107)?(. - _ebase_address):__vector_offset_default
 *(.vector_107)
                0x00000210                __vector_offset_108 = DEFINED (__vector_dispatch_108)?(. - _ebase_address):__vector_offset_default
 *(.vector_108)
                0x00000210                __vector_offset_109 = DEFINED (__vector_dispatch_109)?(. - _ebase_address):__vector_offset_default
 *(.vector_109)
                0x00000210                __vector_offset_110 = DEFINED (__vector_dispatch_110)?(. - _ebase_address):__vector_offset_default
 *(.vector_110)
                0x00000210                __vector_offset_111 = DEFINED (__vector_dispatch_111)?(. - _ebase_address):__vector_offset_default
 *(.vector_111)
                0x00000210                __vector_offset_112 = DEFINED (__vector_dispatch_112)?(. - _ebase_address):__vector_offset_default
 *(.vector_112)
                0x00000210                __vector_offset_113 = DEFINED (__vector_dispatch_113)?(. - _ebase_address):__vector_offset_default
 *(.vector_113)
                0x00000210                __vector_offset_114 = DEFINED (__vector_dispatch_114)?(. - _ebase_address):__vector_offset_default
 *(.vector_114)
                0x00000210                __vector_offset_115 = DEFINED (__vector_dispatch_115)?(. - _ebase_address):__vector_offset_default
 *(.vector_115)
                0x00000210                __vector_offset_116 = DEFINED (__vector_dispatch_116)?(. - _ebase_address):__vector_offset_default
 *(.vector_116)
                0x00000210                __vector_offset_117 = DEFINED (__vector_dispatch_117)?(. - _ebase_address):__vector_offset_default
 *(.vector_117)
                0x00000210                __vector_offset_118 = DEFINED (__vector_dispatch_118)?(. - _ebase_address):__vector_offset_default
 *(.vector_118)
                0x00000210                __vector_offset_119 = DEFINED (__vector_dispatch_119)?(. - _ebase_address):__vector_offset_default
 *(.vector_119)
                0x00000210                __vector_offset_120 = DEFINED (__vector_dispatch_120)?(. - _ebase_address):__vector_offset_default
 *(.vector_120)
                0x00000210                __vector_offset_121 = DEFINED (__vector_dispatch_121)?(. - _ebase_address):__vector_offset_default
 *(.vector_121)
                0x00000210                __vector_offset_122 = DEFINED (__vector_dispatch_122)?(. - _ebase_address):__vector_offset_default
 *(.vector_122)
                0x00000210                __vector_offset_123 = DEFINED (__vector_dispatch_123)?(. - _ebase_address):__vector_offset_default
 *(.vector_123)
                0x00000210                __vector_offset_124 = DEFINED (__vector_dispatch_124)?(. - _ebase_address):__vector_offset_default
 *(.vector_124)
                0x00000210                __vector_offset_125 = DEFINED (__vector_dispatch_125)?(. - _ebase_address):__vector_offset_default
 *(.vector_125)
                0x00000210                __vector_offset_126 = DEFINED (__vector_dispatch_126)?(. - _ebase_address):__vector_offset_default
 *(.vector_126)
                0x00000210                __vector_offset_127 = DEFINED (__vector_dispatch_127)?(. - _ebase_address):__vector_offset_default
 *(.vector_127)
                0x00000210                __vector_offset_128 = DEFINED (__vector_dispatch_128)?(. - _ebase_address):__vector_offset_default
 *(.vector_128)
                0x00000210                __vector_offset_129 = DEFINED (__vector_dispatch_129)?(. - _ebase_address):__vector_offset_default
 *(.vector_129)
                0x00000210                __vector_offset_130 = DEFINED (__vector_dispatch_130)?(. - _ebase_address):__vector_offset_default
 *(.vector_130)
                0x00000210                __vector_offset_131 = DEFINED (__vector_dispatch_131)?(. - _ebase_address):__vector_offset_default
 *(.vector_131)
                0x00000210                __vector_offset_132 = DEFINED (__vector_dispatch_132)?(. - _ebase_address):__vector_offset_default
 *(.vector_132)
                0x00000210                __vector_offset_133 = DEFINED (__vector_dispatch_133)?(. - _ebase_address):__vector_offset_default
 *(.vector_133)
                0x00000210                __vector_offset_134 = DEFINED (__vector_dispatch_134)?(. - _ebase_address):__vector_offset_default
 *(.vector_134)
                0x00000210                __vector_offset_135 = DEFINED (__vector_dispatch_135)?(. - _ebase_address):__vector_offset_default
 *(.vector_135)
                0x00000210                __vector_offset_136 = DEFINED (__vector_dispatch_136)?(. - _ebase_address):__vector_offset_default
 *(.vector_136)
                0x00000210                __vector_offset_137 = DEFINED (__vector_dispatch_137)?(. - _ebase_address):__vector_offset_default
 *(.vector_137)
                0x00000210                __vector_offset_138 = DEFINED (__vector_dispatch_138)?(. - _ebase_address):__vector_offset_default
 *(.vector_138)
                0x00000210                __vector_offset_139 = DEFINED (__vector_dispatch_139)?(. - _ebase_address):__vector_offset_default
 *(.vector_139)
                0x00000210                __vector_offset_140 = DEFINED (__vector_dispatch_140)?(. - _ebase_address):__vector_offset_default
 *(.vector_140)
                0x00000210                __vector_offset_141 = DEFINED (__vector_dispatch_141)?(. - _ebase_address):__vector_offset_default
 *(.vector_141)
                0x00000210                __vector_offset_142 = DEFINED (__vector_dispatch_142)?(. - _ebase_address):__vector_offset_default
 *(.vector_142)
                0x00000210                __vector_offset_143 = DEFINED (__vector_dispatch_143)?(. - _ebase_address):__vector_offset_default
 *(.vector_143)
                0x00000210                __vector_offset_144 = DEFINED (__vector_dispatch_144)?(. - _ebase_address):__vector_offset_default
 *(.vector_144)
                0x00000210                __vector_offset_145 = DEFINED (__vector_dispatch_145)?(. - _ebase_address):__vector_offset_default
 *(.vector_145)
                0x00000210                __vector_offset_146 = DEFINED (__vector_dispatch_146)?(. - _ebase_address):__vector_offset_default
 *(.vector_146)
                0x00000210                __vector_offset_147 = DEFINED (__vector_dispatch_147)?(. - _ebase_address):__vector_offset_default
 *(.vector_147)
                0x00000210                __vector_offset_148 = DEFINED (__vector_dispatch_148)?(. - _ebase_address):__vector_offset_default
 *(.vector_148)
                0x00000210                __vector_offset_149 = DEFINED (__vector_dispatch_149)?(. - _ebase_address):__vector_offset_default
 *(.vector_149)
                0x00000210                __vector_offset_150 = DEFINED (__vector_dispatch_150)?(. - _ebase_address):__vector_offset_default
 *(.vector_150)
                0x00000210                __vector_offset_151 = DEFINED (__vector_dispatch_151)?(. - _ebase_address):__vector_offset_default
 *(.vector_151)
                0x00000210                __vector_offset_152 = DEFINED (__vector_dispatch_152)?(. - _ebase_address):__vector_offset_default
 *(.vector_152)
                0x00000210                __vector_offset_153 = DEFINED (__vector_dispatch_153)?(. - _ebase_address):__vector_offset_default
 *(.vector_153)
                0x00000210                __vector_offset_154 = DEFINED (__vector_dispatch_154)?(. - _ebase_address):__vector_offset_default
 *(.vector_154)
                0x00000210                __vector_offset_155 = DEFINED (__vector_dispatch_155)?(. - _ebase_address):__vector_offset_default
 *(.vector_155)
                0x00000210                __vector_offset_156 = DEFINED (__vector_dispatch_156)?(. - _ebase_address):__vector_offset_default
 *(.vector_156)
                0x00000210                __vector_offset_157 = DEFINED (__vector_dispatch_157)?(. - _ebase_address):__vector_offset_default
 *(.vector_157)
                0x00000208                __vector_offset_158 = DEFINED (__vector_dispatch_158)?(. - _ebase_address):__vector_offset_default
 *(.vector_158)
 .vector_158    0x9d001208        0x8 build/TEST/production/_ext/73441385/system_comm.o
                0x9d001208                __vector_dispatch_158
                0x00000210                __vector_offset_159 = DEFINED (__vector_dispatch_159)?(. - _ebase_address):__vector_offset_default
 *(.vector_159)
                0x00000210                __vector_offset_160 = DEFINED (__vector_dispatch_160)?(. - _ebase_address):__vector_offset_default
 *(.vector_160)
                0x00000210                __vector_offset_161 = DEFINED (__vector_dispatch_161)?(. - _ebase_address):__vector_offset_default
 *(.vector_161)
                0x00000210                __vector_offset_162 = DEFINED (__vector_dispatch_162)?(. - _ebase_address):__vector_offset_default
 *(.vector_162)
                0x00000210                __vector_offset_163 = DEFINED (__vector_dispatch_163)?(. - _ebase_address):__vector_offset_default
 *(.vector_163)
                0x00000210                __vector_offset_164 = DEFINED (__vector_dispatch_164)?(. - _ebase_address):__vector_offset_default
 *(.vector_164)
                0x00000210                __vector_offset_165 = DEFINED (__vector_dispatch_165)?(. - _ebase_address):__vector_offset_default
 *(.vector_165)
                0x00000210                __vector_offset_166 = DEFINED (__vector_dispatch_166)?(. - _ebase_address):__vector_offset_default
 *(.vector_166)
                0x00000210                __vector_offset_167 = DEFINED (__vector_dispatch_167)?(. - _ebase_address):__vector_offset_default
 *(.vector_167)
                0x00000210                __vector_offset_168 = DEFINED (__vector_dispatch_168)?(. - _ebase_address):__vector_offset_default
 *(.vector_168)
                0x00000210                __vector_offset_169 = DEFINED (__vector_dispatch_169)?(. - _ebase_address):__vector_offset_default
 *(.vector_169)
                0x00000210                __vector_offset_170 = DEFINED (__vector_dispatch_170)?(. - _ebase_address):__vector_offset_default
 *(.vector_170)
                0x00000210                __vector_offset_171 = DEFINED (__vector_dispatch_171)?(. - _ebase_address):__vector_offset_default
 *(.vector_171)
                0x00000210                __vector_offset_172 = DEFINED (__vector_dispatch_172)?(. - _ebase_address):__vector_offset_default
 *(.vector_172)
                0x00000210                __vector_offset_173 = DEFINED (__vector_dispatch_173)?(. - _ebase_address):__vector_offset_default
 *(.vector_173)
                0x00000210                __vector_offset_174 = DEFINED (__vector_dispatch_174)?(. - _ebase_address):__vector_offset_default
 *(.vector_174)
                0x00000210                __vector_offset_175 = DEFINED (__vector_dispatch_175)?(. - _ebase_address):__vector_offset_default
 *(.vector_175)
                0x00000210                __vector_offset_176 = DEFINED (__vector_dispatch_176)?(. - _ebase_address):__vector_offset_default
 *(.vector_176)
                0x00000210                __vector_offset_177 = DEFINED (__vector_dispatch_177)?(. - _ebase_address):__vector_offset_default
 *(.vector_177)
                0x00000210                __vector_offset_178 = DEFINED (__vector_dispatch_178)?(. - _ebase_address):__vector_offset_default
 *(.vector_178)
                0x00000210                __vector_offset_179 = DEFINED (__vector_dispatch_179)?(. - _ebase_address):__vector_offset_default
 *(.vector_179)
                0x00000210                __vector_offset_180 = DEFINED (__vector_dispatch_180)?(. - _ebase_address):__vector_offset_default
 *(.vector_180)
                0x00000210                __vector_offset_181 = DEFINED (__vector_dispatch_181)?(. - _ebase_address):__vector_offset_default
 *(.vector_181)
                0x00000210                __vector_offset_182 = DEFINED (__vector_dispatch_182)?(. - _ebase_address):__vector_offset_default
 *(.vector_182)
                0x00000210                __vector_offset_183 = DEFINED (__vector_dispatch_183)?(. - _ebase_address):__vector_offset_default
 *(.vector_183)
                0x00000210                __vector_offset_184 = DEFINED (__vector_dispatch_184)?(. - _ebase_address):__vector_offset_default
 *(.vector_184)
                0x00000210                __vector_offset_185 = DEFINED (__vector_dispatch_185)?(. - _ebase_address):__vector_offset_default
 *(.vector_185)
                0x00000210                __vector_offset_186 = DEFINED (__vector_dispatch_186)?(. - _ebase_address):__vector_offset_default
 *(.vector_186)
                0x00000210                __vector_offset_187 = DEFINED (__vector_dispatch_187)?(. - _ebase_address):__vector_offset_default
 *(.vector_187)
                0x00000210                __vector_offset_188 = DEFINED (__vector_dispatch_188)?(. - _ebase_address):__vector_offset_default
 *(.vector_188)
                0x00000210                __vector_offset_189 = DEFINED (__vector_dispatch_189)?(. - _ebase_address):__vector_offset_default
 *(.vector_189)
                0x00000210                __vector_offset_190 = DEFINED (__vector_dispatch_190)?(. - _ebase_address):__vector_offset_default
 *(.vector_190)
                0x00000210                __vector_offset_191 = DEFINED (__vector_dispatch_191)?(. - _ebase_address):__vector_offset_default
 *(.vector_191)
                0x00000210                __vector_offset_192 = DEFINED (__vector_dispatch_192)?(. - _ebase_address):__vector_offset_default
 *(.vector_192)
                0x00000210                __vector_offset_193 = DEFINED (__vector_dispatch_193)?(. - _ebase_address):__vector_offset_default
 *(.vector_193)
                0x00000210                __vector_offset_194 = DEFINED (__vector_dispatch_194)?(. - _ebase_address):__vector_offset_default
 *(.vector_194)
                0x00000210                __vector_offset_195 = DEFINED (__vector_dispatch_195)?(. - _ebase_address):__vector_offset_default
 *(.vector_195)
                0x00000210                __vector_offset_196 = DEFINED (__vector_dispatch_196)?(. - _ebase_address):__vector_offset_default
 *(.vector_196)
                0x00000210                __vector_offset_197 = DEFINED (__vector_dispatch_197)?(. - _ebase_address):__vector_offset_default
 *(.vector_197)
                0x00000210                __vector_offset_198 = DEFINED (__vector_dispatch_198)?(. - _ebase_address):__vector_offset_default
 *(.vector_198)
                0x00000210                __vector_offset_199 = DEFINED (__vector_dispatch_199)?(. - _ebase_address):__vector_offset_default
 *(.vector_199)
                0x00000210                __vector_offset_200 = DEFINED (__vector_dispatch_200)?(. - _ebase_address):__vector_offset_default
 *(.vector_200)
                0x00000210                __vector_offset_201 = DEFINED (__vector_dispatch_201)?(. - _ebase_address):__vector_offset_default
 *(.vector_201)
                0x00000210                __vector_offset_202 = DEFINED (__vector_dispatch_202)?(. - _ebase_address):__vector_offset_default
 *(.vector_202)
                0x00000210                __vector_offset_203 = DEFINED (__vector_dispatch_203)?(. - _ebase_address):__vector_offset_default
 *(.vector_203)
                0x00000210                __vector_offset_204 = DEFINED (__vector_dispatch_204)?(. - _ebase_address):__vector_offset_default
 *(.vector_204)
                0x00000210                __vector_offset_205 = DEFINED (__vector_dispatch_205)?(. - _ebase_address):__vector_offset_default
 *(.vector_205)
                0x00000210                __vector_offset_206 = DEFINED (__vector_dispatch_206)?(. - _ebase_address):__vector_offset_default
 *(.vector_206)
                0x00000210                __vector_offset_207 = DEFINED (__vector_dispatch_207)?(. - _ebase_address):__vector_offset_default
 *(.vector_207)
                0x00000210                __vector_offset_208 = DEFINED (__vector_dispatch_208)?(. - _ebase_address):__vector_offset_default
 *(.vector_208)
                0x00000210                __vector_offset_209 = DEFINED (__vector_dispatch_209)?(. - _ebase_address):__vector_offset_default
 *(.vector_209)
                0x00000210                __vector_offset_210 = DEFINED (__vector_dispatch_210)?(. - _ebase_address):__vector_offset_default
 *(.vector_210)
                0x00000210                __vector_offset_211 = DEFINED (__vector_dispatch_211)?(. - _ebase_address):__vector_offset_default
 *(.vector_211)
                0x00000210                __vector_offset_212 = DEFINED (__vector_dispatch_212)?(. - _ebase_address):__vector_offset_default
 *(.vector_212)
                0x00000210                __vector_offset_213 = DEFINED (__vector_dispatch_213)?(. - _ebase_address):__vector_offset_default
 *(.vector_213)
                0x00000210                __vector_offset_214 = DEFINED (__vector_dispatch_214)?(. - _ebase_address):__vector_offset_default
 *(.vector_214)
                0x00000210                __vector_offset_215 = DEFINED (__vector_dispatch_215)?(. - _ebase_address):__vector_offset_default
 *(.vector_215)
                0x00000210                __vector_offset_216 = DEFINED (__vector_dispatch_216)?(. - _ebase_address):__vector_offset_default
 *(.vector_216)
                0x00000210                __vector_offset_217 = DEFINED (__vector_dispatch_217)?(. - _ebase_address):__vector_offset_default
 *(.vector_217)
                0x00000210                __vector_offset_218 = DEFINED (__vector_dispatch_218)?(. - _ebase_address):__vector_offset_default
 *(.vector_218)
                0x00000210                __vector_offset_219 = DEFINED (__vector_dispatch_219)?(. - _ebase_address):__vector_offset_default
 *(.vector_219)
                0x00000210                __vector_offset_220 = DEFINED (__vector_dispatch_220)?(. - _ebase_address):__vector_offset_default
 *(.vector_220)
                0x00000210                __vector_offset_221 = DEFINED (__vector_dispatch_221)?(. - _ebase_address):__vector_offset_default
 *(.vector_221)
                0x00000210                __vector_offset_222 = DEFINED (__vector_dispatch_222)?(. - _ebase_address):__vector_offset_default
 *(.vector_222)
                0x00000210                __vector_offset_223 = DEFINED (__vector_dispatch_223)?(. - _ebase_address):__vector_offset_default
 *(.vector_223)
                0x00000210                __vector_offset_224 = DEFINED (__vector_dispatch_224)?(. - _ebase_address):__vector_offset_default
 *(.vector_224)
                0x00000210                __vector_offset_225 = DEFINED (__vector_dispatch_225)?(. - _ebase_address):__vector_offset_default
 *(.vector_225)
                0x00000210                __vector_offset_226 = DEFINED (__vector_dispatch_226)?(. - _ebase_address):__vector_offset_default
 *(.vector_226)
                0x00000210                __vector_offset_227 = DEFINED (__vector_dispatch_227)?(. - _ebase_address):__vector_offset_default
 *(.vector_227)
                0x00000210                __vector_offset_228 = DEFINED (__vector_dispatch_228)?(. - _ebase_address):__vector_offset_default
 *(.vector_228)
                0x00000210                __vector_offset_229 = DEFINED (__vector_dispatch_229)?(. - _ebase_address):__vector_offset_default
 *(.vector_229)
                0x00000210                __vector_offset_230 = DEFINED (__vector_dispatch_230)?(. - _ebase_address):__vector_offset_default
 *(.vector_230)
                0x00000210                __vector_offset_231 = DEFINED (__vector_dispatch_231)?(. - _ebase_address):__vector_offset_default
 *(.vector_231)
                0x00000210                __vector_offset_232 = DEFINED (__vector_dispatch_232)?(. - _ebase_address):__vector_offset_default
 *(.vector_232)
                0x00000210                __vector_offset_233 = DEFINED (__vector_dispatch_233)?(. - _ebase_address):__vector_offset_default
 *(.vector_233)
                0x00000210                __vector_offset_234 = DEFINED (__vector_dispatch_234)?(. - _ebase_address):__vector_offset_default
 *(.vector_234)
                0x00000210                __vector_offset_235 = DEFINED (__vector_dispatch_235)?(. - _ebase_address):__vector_offset_default
 *(.vector_235)
                0x00000210                __vector_offset_236 = DEFINED (__vector_dispatch_236)?(. - _ebase_address):__vector_offset_default
 *(.vector_236)
                0x00000210                __vector_offset_237 = DEFINED (__vector_dispatch_237)?(. - _ebase_address):__vector_offset_default
 *(.vector_237)
                0x00000210                __vector_offset_238 = DEFINED (__vector_dispatch_238)?(. - _ebase_address):__vector_offset_default
 *(.vector_238)
                0x00000210                __vector_offset_239 = DEFINED (__vector_dispatch_239)?(. - _ebase_address):__vector_offset_default
 *(.vector_239)
                0x00000210                __vector_offset_240 = DEFINED (__vector_dispatch_240)?(. - _ebase_address):__vector_offset_default
 *(.vector_240)
                0x00000210                __vector_offset_241 = DEFINED (__vector_dispatch_241)?(. - _ebase_address):__vector_offset_default
 *(.vector_241)
                0x00000210                __vector_offset_242 = DEFINED (__vector_dispatch_242)?(. - _ebase_address):__vector_offset_default
 *(.vector_242)
                0x00000210                __vector_offset_243 = DEFINED (__vector_dispatch_243)?(. - _ebase_address):__vector_offset_default
 *(.vector_243)
                0x00000210                __vector_offset_244 = DEFINED (__vector_dispatch_244)?(. - _ebase_address):__vector_offset_default
 *(.vector_244)
                0x00000210                __vector_offset_245 = DEFINED (__vector_dispatch_245)?(. - _ebase_address):__vector_offset_default
 *(.vector_245)
                0x00000210                __vector_offset_246 = DEFINED (__vector_dispatch_246)?(. - _ebase_address):__vector_offset_default
 *(.vector_246)
                0x00000210                __vector_offset_247 = DEFINED (__vector_dispatch_247)?(. - _ebase_address):__vector_offset_default
 *(.vector_247)
                0x00000210                __vector_offset_248 = DEFINED (__vector_dispatch_248)?(. - _ebase_address):__vector_offset_default
 *(.vector_248)
                0x00000210                __vector_offset_249 = DEFINED (__vector_dispatch_249)?(. - _ebase_address):__vector_offset_default
 *(.vector_249)
                0x00000210                __vector_offset_250 = DEFINED (__vector_dispatch_250)?(. - _ebase_address):__vector_offset_default
 *(.vector_250)
                0x00000210                __vector_offset_251 = DEFINED (__vector_dispatch_251)?(. - _ebase_address):__vector_offset_default
 *(.vector_251)
                0x00000210                __vector_offset_252 = DEFINED (__vector_dispatch_252)?(. - _ebase_address):__vector_offset_default
 *(.vector_252)
                0x00000210                __vector_offset_253 = DEFINED (__vector_dispatch_253)?(. - _ebase_address):__vector_offset_default
 *(.vector_253)
                0x00000210                __vector_offset_254 = DEFINED (__vector_dispatch_254)?(. - _ebase_address):__vector_offset_default
 *(.vector_254)
                0x00000210                __vector_offset_255 = DEFINED (__vector_dispatch_255)?(. - _ebase_address):__vector_offset_default
 *(.vector_255)
                0x00000210                __vector_offset_default = (. - _ebase_address)
 *(.vector_default)
 .vector_default
                0x9d001210       0x48 c:/program files/microchip/xc32/v2.50/bin/bin/../../lib/gcc/pic32mx/4.8.3/../../../../pic32mx/lib/fpu64\libpic32.a(defaultinterrupt.o)
                0x9d001210                _DefaultInterrupt

.startup
 *(.startup)

.text           0x9d001258        0x0
 *(.stub .gnu.linkonce.t.*)
 *(.text.*personality*)
 *(.mips16.fn.*)
 *(.mips16.call.*)
 *(.gnu.warning)
                0x9d001258                . = ALIGN (0x4)

.init           0x9d001258        0x0
 *crti.o(.init)
 *crtbegin.o(.init)
 *(EXCLUDE_FILE(*crtn.o *crtend?.o *crtend.o) .init)
 *crtend.o(.init)
 *crtn.o(.init)
                0x9d001258                . = ALIGN (0x4)

.fini           0x9d001258        0x0
 *(.fini)
                0x9d001258                . = ALIGN (0x4)

.preinit_array  0x9d001258        0x0
                0x9d001258                PROVIDE (__preinit_array_start, .)
 *(.preinit_array)
                0x9d001258                PROVIDE (__preinit_array_end, .)
                0x9d001258                . = ALIGN (0x4)

.init_array     0x9d001258        0x0
                0x9d001258                PROVIDE (__init_array_start, .)
 *(SORT(.init_array.*))
 *(.init_array)
                0x9d001258                PROVIDE (__init_array_end, .)
                0x9d001258                . = ALIGN (0x4)

.fini_array     0x9d001258        0x0
                0x9d001258                PROVIDE (__fini_array_start, .)
 *(SORT(.fini_array.*))
 *(.fini_array)
                0x9d001258                PROVIDE (__fini_array_end, .)
                0x9d001258                . = ALIGN (0x4)

.ctors          0x9d001258        0x0
 *crtbegin.o(.ctors)
 *crtbegin?.o(.ctors)
 *(EXCLUDE_FILE(*crtend?.o *crtend.o) .ctors)
 *(SORT(.ctors.*))
 *(.ctors)
                0x9d001258                . = ALIGN (0x4)

.dtors          0x9d001258        0x0
 *crtbegin.o(.dtors)
 *crtbegin?.o(.dtors)
 *(EXCLUDE_FILE(*crtend?.o *crtend.o) .dtors)
 *(SORT(.dtors.*))
 *(.dtors)
                0x9d001258                . = ALIGN (0x4)

.rodata         0x9d001258        0x0
 *(.gnu.linkonce.r.*)
 *(.rodata1)
                0x9d001258                . = ALIGN (0x4)

.sdata2         0x9d0004b0        0x0
 *(.sdata2 .sdata2.* .gnu.linkonce.s2.*)
                0x9d0004b0                . = ALIGN (0x4)

.sbss2          0x9d0004b0        0x0
 *(.sbss2 .sbss2.* .gnu.linkonce.sb2.*)
                0x9d0004b0                . = ALIGN (0x4)

.eh_frame_hdr
 *(.eh_frame_hdr)
                0x9d0004b0                . = ALIGN (0x4)

.eh_frame
 *(.eh_frame)
                0x9d0004b0                . = ALIGN (0x4)

.gcc_except_table
 *(.gcc_except_table .gcc_except_table.*)
                0x9d0004b0                . = ALIGN (0x4)

.dbg_data       0x80000000        0x0
                0x80000000                . = (. + DEFINED (_DEBUGGER)?0x200:0x0)
                0x80000000                . = (. + DEFINED (_DEBUGGER)?0x80:0x0)

.jcr            0x80000000        0x0
 *(.jcr)
                0x80000000                . = ALIGN (0x4)

.eh_frame
 *(.eh_frame)
                0x80000000                . = ALIGN (0x4)

.gcc_except_table
 *(.gcc_except_table .gcc_except_table.*)
                0x80000000                . = ALIGN (0x4)

.persist        0x80000000        0x0
                0x80000000                _persist_begin = .
 *(.persist .persist.*)
 *(.pbss .pbss.*)
                0x80000000                . = ALIGN (0x4)
                0x80000000                _persist_end = .

.data           0x80000000        0x0
 *(.gnu.linkonce.d.*)
 *(.data1)
                0x80000000                . = ALIGN (0x4)
                0x80000000                . = .
                0x80007ff0                _gp = (ALIGN (0x10) + 0x7ff0)

.got            0x80000000        0x0
 *(.got.plt)
 *(.got)
                0x80000000                . = ALIGN (0x4)

.sdata          0x80000000       0x2c
                0x80000000                _sdata_begin = .
 *(.sdata .sdata.* .gnu.linkonce.s.*)
 .sdata         0x80000000       0x24 c:/program files/microchip/xc32/v2.50/bin/bin/../../lib/gcc/pic32mx/4.8.3/../../../../pic32mx/lib/fpu64\libpic32.a(pic32_init_cache.o)
                0x80000000                __pic32_icache_size
                0x80000004                __pic32_icache_linesize
                0x80000008                __pic32_icache_ways
                0x8000000c                __pic32_dcache_size
                0x80000010                __pic32_dcache_linesize
                0x80000014                __pic32_dcache_ways
                0x80000018                __pic32_scache_size
                0x8000001c                __pic32_scache_linesize
                0x80000020                __pic32_scache_ways
 .sdata         0x80000024        0x4 c:/program files/microchip/xc32/v2.50/bin/bin/../../lib/gcc/pic32mx/4.8.3/../../../../pic32mx/lib/fpu64\liblega-c.a(_iobdata.o)
                0x80000024                _libc_data
 .sdata         0x80000028        0x4 c:/program files/microchip/xc32/v2.50/bin/bin/../../lib/gcc/pic32mx/4.8.3/../../../../pic32mx/lib/fpu64\libpic32.a(xc32_uart.o)
                0x80000028                __XC_UART
                0x8000002c                . = ALIGN (0x4)
                0x8000002c                _sdata_end = .

.lit8
 *(.lit8)

.lit4
 *(.lit4)
                0x8000002c                . = ALIGN (0x4)
                0x8000002c                _data_end = .
                0x8000002c                _bss_begin = .

.sbss           0x8000002c      0x114
                0x8000002c                _sbss_begin = .
 *(.dynsbss)
 *(.sbss .sbss.* .gnu.linkonce.sb.*)
 .sbss          0x8000002c       0x10 build/TEST/production/_ext/2070436302/relay.o
 .sbss          0x8000003c       0x20 build/TEST/production/_ext/2070436302/unisequencer.o
 .sbss          0x8000005c       0x24 build/TEST/production/_ext/2070436302/mod_swspi.o
 .sbss          0x80000080       0x48 build/TEST/production/_ext/2070436302/scanchain.o
 .sbss          0x800000c8        0x4 build/TEST/production/_ext/2070436302/intadc.o
 .sbss          0x800000cc       0x10 build/TEST/production/_ext/2070436302/cap.o
 .sbss          0x800000dc        0x8 build/TEST/production/_ext/801483606/app.o
                0x800000e0                APP_BREAK
 .sbss          0x800000e4        0x2 build/TEST/production/_ext/801483606/on_parameter_found.o
 *fill*         0x800000e6        0x2 
 .sbss          0x800000e8        0x8 build/TEST/production/_ext/210424401/parser.o
 .sbss          0x800000f0        0xc build/TEST/production/_ext/783894060/planner.o
 .sbss          0x800000fc        0xc build/TEST/production/_ext/73441385/system_exceptions.o
 .sbss          0x80000108        0x4 build/TEST/production/_ext/73441385/system_comm.o
 .sbss          0x8000010c        0x8 build/TEST/production/_ext/73441385/system_error.o
 .sbss          0x80000114        0x4 c:/program files/microchip/xc32/v2.50/bin/bin/../../lib/gcc/pic32mx/4.8.3/../../../../pic32mx/lib/fpu64\liblega-c.a(errno.o)
                0x80000114                errno
 *(.scommon)
 .scommon       0x80000118       0x20 build/TEST/production/_ext/2070436302/mod_swspi.o
                0x80000118                m_gpio_r_mask
                0x8000011c                m_gpio_ck_mask
                0x80000120                m_gpio_cs_port
                0x80000124                m_gpio_w_port
                0x80000128                m_gpio_ck_port
                0x8000012c                m_gpio_w_mask
                0x80000130                m_gpio_cs_mask
                0x80000134                m_gpio_r_port
 .scommon       0x80000138        0x4 build/TEST/production/_ext/2070436302/scanchain.o
                0x80000138                clockMode
 .scommon       0x8000013c        0x4 build/TEST/production/_ext/801483606/app.o
                0x8000013c                app_result_count
                0x80000140                _sbss_end = .
                0x80000140                . = ALIGN (0x4)

.bss            0x80000140    0x7a1d4
 *(.dynbss)
 *(COMMON)
 COMMON         0x80000140    0x7a120 build/TEST/production/_ext/801483606/app.o
                0x80000140                application_data
 COMMON         0x8007a260       0xb4 build/TEST/production/_ext/1509319821/adc.o
                0x8007a260                analog_inputs
                0x8007a314                . = ALIGN ((. != 0x0)?0x4:0x1)
                0x8007a314                . = ALIGN (0x4)
                0x8007a314                _end = .
                0x8007a314                _bss_end = .
                0x00080000                _bmxdudba_address = 0x80000
                0x00080000                _bmxdupba_address = 0x80000

/DISCARD/
 *(.pdr)
 *(.rel.dyn)
 *(.note.GNU-stack)
 *(.note.GNU-stack)
 *(.gnu_debuglink)
 *(.gnu.lto_*)
 *(.discard)
 *(._debug_exception)

.gptab.sdata
 *(.gptab.data)
 *(.gptab.sdata)

.gptab.sbss
 *(.gptab.bss)
 *(.gptab.sbss)

.mdebug.abi32   0x8007a314        0x0
 *(.mdebug.abi32)
 .mdebug.abi32  0x8007a314        0x0 build/TEST/production/_ext/744274812/chrono.o
 .mdebug.abi32  0x8007a314        0x0 build/TEST/production/_ext/816358189/ad5641.o
 .mdebug.abi32  0x8007a314        0x0 build/TEST/production/_ext/2070436302/dio.o
 .mdebug.abi32  0x8007a314        0x0 build/TEST/production/_ext/2070436302/genclk.o
 .mdebug.abi32  0x8007a314        0x0 build/TEST/production/_ext/2070436302/relay.o
 .mdebug.abi32  0x8007a314        0x0 build/TEST/production/_ext/2070436302/unisequencer.o
 .mdebug.abi32  0x8007a314        0x0 build/TEST/production/_ext/2070436302/mod_pwm.o
 .mdebug.abi32  0x8007a314        0x0 build/TEST/production/_ext/2070436302/mod_spi.o
 .mdebug.abi32  0x8007a314        0x0 build/TEST/production/_ext/2070436302/mod_swspi.o
 .mdebug.abi32  0x8007a314        0x0 build/TEST/production/_ext/2070436302/mod_i2c.o
 .mdebug.abi32  0x8007a314        0x0 build/TEST/production/_ext/2070436302/aout.o
 .mdebug.abi32  0x8007a314        0x0 build/TEST/production/_ext/2070436302/ain.o
 .mdebug.abi32  0x8007a314        0x0 build/TEST/production/_ext/2070436302/scanchain.o
 .mdebug.abi32  0x8007a314        0x0 build/TEST/production/_ext/2070436302/intadc.o
 .mdebug.abi32  0x8007a314        0x0 build/TEST/production/_ext/2070436302/mod_refclk.o
 .mdebug.abi32  0x8007a314        0x0 build/TEST/production/_ext/2070436302/cap.o
 .mdebug.abi32  0x8007a314        0x0 build/TEST/production/_ext/801483606/app.o
 .mdebug.abi32  0x8007a314        0x0 build/TEST/production/_ext/801483606/on_parameter_found.o
 .mdebug.abi32  0x8007a314        0x0 build/TEST/production/_ext/1537666708/board.o
 .mdebug.abi32  0x8007a314        0x0 build/TEST/production/_ext/1509319821/adc.o
 .mdebug.abi32  0x8007a314        0x0 build/TEST/production/_ext/1509317981/can.o
 .mdebug.abi32  0x8007a314        0x0 build/TEST/production/_ext/455916380/gpio.o
 .mdebug.abi32  0x8007a314        0x0 build/TEST/production/_ext/1509311806/int.o
 .mdebug.abi32  0x8007a314        0x0 build/TEST/production/_ext/1255152928/nvm.o
 .mdebug.abi32  0x8007a314        0x0 build/TEST/production/_ext/1509304807/pwm.o
 .mdebug.abi32  0x8007a314        0x0 build/TEST/production/_ext/353641468/refclk.o
 .mdebug.abi32  0x8007a314        0x0 build/TEST/production/_ext/1509302145/spi.o
 .mdebug.abi32  0x8007a314        0x0 build/TEST/production/_ext/1509302145/swspi.o
 .mdebug.abi32  0x8007a314        0x0 build/TEST/production/_ext/401144697/systmr.o
 .mdebug.abi32  0x8007a314        0x0 build/TEST/production/_ext/1261517080/usart.o
 .mdebug.abi32  0x8007a314        0x0 build/TEST/production/_ext/1509298662/wdt.o
 .mdebug.abi32  0x8007a314        0x0 build/TEST/production/_ext/210424401/rd_buffer.o
 .mdebug.abi32  0x8007a314        0x0 build/TEST/production/_ext/210424401/parser.o
 .mdebug.abi32  0x8007a314        0x0 build/TEST/production/_ext/210424401/string_utils.o
 .mdebug.abi32  0x8007a314        0x0 build/TEST/production/_ext/783894060/planner.o
 .mdebug.abi32  0x8007a314        0x0 build/TEST/production/_ext/73441385/system_exceptions.o
 .mdebug.abi32  0x8007a314        0x0 build/TEST/production/_ext/73441385/system_init.o
 .mdebug.abi32  0x8007a314        0x0 build/TEST/production/_ext/73441385/system_dbg.o
 .mdebug.abi32  0x8007a314        0x0 build/TEST/production/_ext/73441385/system_time.o
 .mdebug.abi32  0x8007a314        0x0 build/TEST/production/_ext/73441385/system_config.o
 .mdebug.abi32  0x8007a314        0x0 build/TEST/production/_ext/73441385/system_comm.o
 .mdebug.abi32  0x8007a314        0x0 build/TEST/production/_ext/73441385/system_error.o
 .mdebug.abi32  0x8007a314        0x0 build/TEST/production/_ext/73441385/crc.o
 .mdebug.abi32  0x8007a314        0x0 build/TEST/production/_ext/1360937237/main.o
 .mdebug.abi32  0x8007a314        0x0 c:/program files/microchip/xc32/v2.50/bin/bin/../../lib/gcc/pic32mx/4.8.3/../../../../pic32mx/lib/fpu64\libpic32.a(default-bootstrap-exception-handler.o)
 .mdebug.abi32  0x8007a314        0x0 c:/program files/microchip/xc32/v2.50/bin/bin/../../lib/gcc/pic32mx/4.8.3/../../../../pic32mx/lib/fpu64\libpic32.a(default-on-reset.o)
 .mdebug.abi32  0x8007a314        0x0 c:/program files/microchip/xc32/v2.50/bin/bin/../../lib/gcc/pic32mx/4.8.3/../../../../pic32mx/lib/fpu64\libpic32.a(default-on-bootstrap.o)
 .mdebug.abi32  0x8007a314        0x0 c:/program files/microchip/xc32/v2.50/bin/bin/../../lib/gcc/pic32mx/4.8.3/../../../../pic32mx/lib/fpu64\libpic32.a(defaultinterrupt.o)
 .mdebug.abi32  0x8007a314        0x0 c:/program files/microchip/xc32/v2.50/bin/bin/../../lib/gcc/pic32mx/4.8.3/../../../../pic32mx/lib/fpu64\libpic32.a(default-cache-err-exception-handler.o)
 .mdebug.abi32  0x8007a314        0x0 c:/program files/microchip/xc32/v2.50/bin/bin/../../lib/gcc/pic32mx/4.8.3/../../../../pic32mx/lib/fpu64\libpic32.a(default-simple-tlb-refill-exception-handler.o)
 .mdebug.abi32  0x8007a314        0x0 c:/program files/microchip/xc32/v2.50/bin/bin/../../lib/gcc/pic32mx/4.8.3/../../../../pic32mx/lib/fpu64\liblega-c.a(strtol.o)
 .mdebug.abi32  0x8007a314        0x0 c:/program files/microchip/xc32/v2.50/bin/bin/../../lib/gcc/pic32mx/4.8.3/../../../../pic32mx/lib/fpu64\liblega-c.a(fputc.o)
 .mdebug.abi32  0x8007a314        0x0 c:/program files/microchip/xc32/v2.50/bin/bin/../../lib/gcc/pic32mx/4.8.3/../../../../pic32mx/lib/fpu64\liblega-c.a(fputs.o)
 .mdebug.abi32  0x8007a314        0x0 c:/program files/microchip/xc32/v2.50/bin/bin/../../lib/gcc/pic32mx/4.8.3/../../../../pic32mx/lib/fpu64\liblega-c.a(printf_cdnopsuxX.eo)
 .mdebug.abi32  0x8007a314        0x0 c:/program files/microchip/xc32/v2.50/bin/bin/../../lib/gcc/pic32mx/4.8.3/../../../../pic32mx/lib/fpu64\liblega-c.a(printf.o)
 .mdebug.abi32  0x8007a314        0x0 c:/program files/microchip/xc32/v2.50/bin/bin/../../lib/gcc/pic32mx/4.8.3/../../../../pic32mx/lib/fpu64\liblega-c.a(sprintf_cdnopsuxX.eo)
 .mdebug.abi32  0x8007a314        0x0 c:/program files/microchip/xc32/v2.50/bin/bin/../../lib/gcc/pic32mx/4.8.3/../../../../pic32mx/lib/fpu64\liblega-c.a(sscanf_cdnopuxX.eo)
 .mdebug.abi32  0x8007a314        0x0 c:/program files/microchip/xc32/v2.50/bin/bin/../../lib/gcc/pic32mx/4.8.3/../../../../pic32mx/lib/fpu64\liblega-c.a(ctype.o)
 .mdebug.abi32  0x8007a314        0x0 c:/program files/microchip/xc32/v2.50/bin/bin/../../lib/gcc/pic32mx/4.8.3/../../../../pic32mx/lib/fpu64\liblega-c.a(errno.o)
 .mdebug.abi32  0x8007a314        0x0 c:/program files/microchip/xc32/v2.50/bin/bin/../../lib/gcc/pic32mx/4.8.3/../../../../pic32mx/lib/fpu64\liblega-c.a(_doprnt_cdnopsuxX.eo)
 .mdebug.abi32  0x8007a314        0x0 c:/program files/microchip/xc32/v2.50/bin/bin/../../lib/gcc/pic32mx/4.8.3/../../../../pic32mx/lib/fpu64\liblega-c.a(_doprnt.o)
 .mdebug.abi32  0x8007a314        0x0 c:/program files/microchip/xc32/v2.50/bin/bin/../../lib/gcc/pic32mx/4.8.3/../../../../pic32mx/lib/fpu64\liblega-c.a(_iobdata.o)
 .mdebug.abi32  0x8007a314        0x0 c:/program files/microchip/xc32/v2.50/bin/bin/../../lib/gcc/pic32mx/4.8.3/../../../../pic32mx/lib/fpu64\liblega-c.a(_iobfuncs.o)
 .mdebug.abi32  0x8007a314        0x0 c:/program files/microchip/xc32/v2.50/bin/bin/../../lib/gcc/pic32mx/4.8.3/../../../../pic32mx/lib/fpu64\liblega-c.a(_iobstring.o)
 .mdebug.abi32  0x8007a314        0x0 c:/program files/microchip/xc32/v2.50/bin/bin/../../lib/gcc/pic32mx/4.8.3/../../../../pic32mx/lib/fpu64\liblega-c.a(_doscan.o)
 .mdebug.abi32  0x8007a314        0x0 c:/program files/microchip/xc32/v2.50/bin/bin/../../lib/gcc/pic32mx/4.8.3/../../../../pic32mx/lib/fpu64\liblega-c.a(stubs.o)
 .mdebug.abi32  0x8007a314        0x0 c:/program files/microchip/xc32/v2.50/bin/bin/../../lib/gcc/pic32mx/4.8.3/../../../../pic32mx/lib/fpu64\liblega-c.a(strchr.o)
 .mdebug.abi32  0x8007a314        0x0 c:/program files/microchip/xc32/v2.50/bin/bin/../../lib/gcc/pic32mx/4.8.3/../../../../pic32mx/lib/fpu64\liblega-c.a(memset.o)
 .mdebug.abi32  0x8007a314        0x0 c:/program files/microchip/xc32/v2.50/bin/bin/../../lib/gcc/pic32mx/4.8.3/../../../../pic32mx/lib/fpu64\liblega-c.a(malloc.o)
 .mdebug.abi32  0x8007a314        0x0 c:/program files/microchip/xc32/v2.50/bin/bin/../../lib/gcc/pic32mx/4.8.3/../../../../pic32mx/lib/fpu64\liblega-c.a(malloc_realloc.o)
 .mdebug.abi32  0x8007a314        0x0 c:/program files/microchip/xc32/v2.50/bin/bin/../../lib/gcc/pic32mx/4.8.3/../../../../pic32mx/lib/fpu64\liblega-c.a(strtoul.o)
 .mdebug.abi32  0x8007a314        0x0 c:/program files/microchip/xc32/v2.50/bin/bin/../../lib/gcc/pic32mx/4.8.3/../../../../pic32mx/lib/fpu64\liblega-c.a(strtoll.o)
 .mdebug.abi32  0x8007a314        0x0 c:/program files/microchip/xc32/v2.50/bin/bin/../../lib/gcc/pic32mx/4.8.3/../../../../pic32mx/lib/fpu64\liblega-c.a(strtoull.o)
 .mdebug.abi32  0x8007a314        0x0 c:/program files/microchip/xc32/v2.50/bin/bin/../../lib/gcc/pic32mx/4.8.3/../../../../pic32mx/lib/fpu64\liblega-c.a(fullexit.o)
 .mdebug.abi32  0x8007a314        0x0 c:/program files/microchip/xc32/v2.50/bin/bin/../../lib/gcc/pic32mx/4.8.3/../../../../pic32mx/lib/fpu64\liblega-c.a(fgetc.o)
 .mdebug.abi32  0x8007a314        0x0 c:/program files/microchip/xc32/v2.50/bin/bin/../../lib/gcc/pic32mx/4.8.3/../../../../pic32mx/lib/fpu64\liblega-c.a(ungetc.o)
 .mdebug.abi32  0x8007a314        0x0 c:/program files/microchip/xc32/v2.50/bin/bin/../../lib/gcc/pic32mx/4.8.3/../../../../pic32mx/lib/fpu64\liblega-c.a(memmove.o)
 .mdebug.abi32  0x8007a314        0x0 c:/program files/microchip/xc32/v2.50/bin/bin/../../lib/gcc/pic32mx/4.8.3/../../../../pic32mx/lib/fpu64\liblega-c.a(memcpy.o)
 .mdebug.abi32  0x8007a314        0x0 c:/program files/microchip/xc32/v2.50/bin/bin/../../lib/gcc/pic32mx/4.8.3/../../../../pic32mx/lib/fpu64\liblega-c.a(_ioinit.o)
 .mdebug.abi32  0x8007a314        0x0 c:/program files/microchip/xc32/v2.50/bin/bin/../../lib/gcc/pic32mx/4.8.3/../../../../pic32mx/lib/fpu64\liblega-c.a(_cleanup.o)
 .mdebug.abi32  0x8007a314        0x0 c:/program files/microchip/xc32/v2.50/bin/bin/../../lib/gcc/pic32mx/4.8.3/../../../../pic32mx/lib/fpu64\liblega-c.a(_bufproc.o)
 .mdebug.abi32  0x8007a314        0x0 c:/program files/microchip/xc32/v2.50/bin/bin/../../lib/gcc/pic32mx/4.8.3/../../../../pic32mx/lib/fpu64\libmfd.a(s_modf.o)
 .mdebug.abi32  0x8007a314        0x0 c:/program files/microchip/xc32/v2.50/bin/bin/../../lib/gcc/pic32mx/4.8.3/../../../../pic32mx/lib/fpu64\libmfd.a(strtod.o)
 .mdebug.abi32  0x8007a314        0x0 c:/program files/microchip/xc32/v2.50/bin/bin/../../lib/gcc/pic32mx/4.8.3/../../../../pic32mx/lib/fpu64\libmfd.a(strtof.o)
 .mdebug.abi32  0x8007a314        0x0 c:/program files/microchip/xc32/v2.50/bin/bin/../../lib/gcc/pic32mx/4.8.3/fpu64\libgcc.a(_divdi3.o)
 .mdebug.abi32  0x8007a314        0x0 c:/program files/microchip/xc32/v2.50/bin/bin/../../lib/gcc/pic32mx/4.8.3/fpu64\libgcc.a(_udivdi3.o)
 .mdebug.abi32  0x8007a314        0x0 c:/program files/microchip/xc32/v2.50/bin/bin/../../lib/gcc/pic32mx/4.8.3/fpu64\libgcc.a(_umoddi3.o)
 .mdebug.abi32  0x8007a314        0x0 c:/program files/microchip/xc32/v2.50/bin/bin/../../lib/gcc/pic32mx/4.8.3/../../../../pic32mx/lib/fpu64\libpic32.a(sbrk.o)
 .mdebug.abi32  0x8007a314        0x0 c:/program files/microchip/xc32/v2.50/bin/bin/../../lib/gcc/pic32mx/4.8.3/../../../../pic32mx/lib/fpu64\libpic32.a(_exit.o)
 .mdebug.abi32  0x8007a314        0x0 c:/program files/microchip/xc32/v2.50/bin/bin/../../lib/gcc/pic32mx/4.8.3/../../../../pic32mx/lib/fpu64\libpic32.a(isatty.o)
 .mdebug.abi32  0x8007a314        0x0 c:/program files/microchip/xc32/v2.50/bin/bin/../../lib/gcc/pic32mx/4.8.3/../../../../pic32mx/lib/fpu64\libpic32.a(_mon_getc.o)
 .mdebug.abi32  0x8007a314        0x0 c:/program files/microchip/xc32/v2.50/bin/bin/../../lib/gcc/pic32mx/4.8.3/../../../../pic32mx/lib/fpu64\libpic32.a(_mon_write.o)
 .mdebug.abi32  0x8007a314        0x0 c:/program files/microchip/xc32/v2.50/bin/bin/../../lib/gcc/pic32mx/4.8.3/../../../../pic32mx/lib/fpu64\libpic32.a(xc32_uart.o)

.mdebug.abiN32
 *(.mdebug.abiN32)

.mdebug.abi64
 *(.mdebug.abi64)

.mdebug.abiO64
 *(.mdebug.abiO64)

.mdebug.eabi32
 *(.mdebug.eabi32)

.mdebug.eabi64
 *(.mdebug.eabi64)

.gcc_compiled_long32
 *(.gcc_compiled_long32)

.gcc_compiled_long64
 *(.gcc_compiled_long64)

.stab
 *(.stab)

.stabstr
 *(.stabstr)

.stab.excl
 *(.stab.excl)

.stab.exclstr
 *(.stab.exclstr)

.stab.index
 *(.stab.index)

.stab.indexstr
 *(.stab.indexstr)

.comment        0x00000000      0x98a
 *(.comment)
 .comment       0x00000000       0x3c build/TEST/production/_ext/744274812/chrono.o
                                 0x3d (size before relaxing)
 .comment       0x00000000       0x3d build/TEST/production/_ext/816358189/ad5641.o
 .comment       0x00000000       0x3d build/TEST/production/_ext/2070436302/dio.o
 .comment       0x00000000       0x3d build/TEST/production/_ext/2070436302/genclk.o
 .comment       0x00000000       0x3d build/TEST/production/_ext/2070436302/relay.o
 .comment       0x00000000       0x3d build/TEST/production/_ext/2070436302/unisequencer.o
 .comment       0x00000000       0x3d build/TEST/production/_ext/2070436302/mod_pwm.o
 .comment       0x00000000       0x3d build/TEST/production/_ext/2070436302/mod_spi.o
 .comment       0x00000000       0x3d build/TEST/production/_ext/2070436302/mod_swspi.o
 .comment       0x00000000       0x3d build/TEST/production/_ext/2070436302/mod_i2c.o
 .comment       0x00000000       0x3d build/TEST/production/_ext/2070436302/aout.o
 .comment       0x00000000       0x3d build/TEST/production/_ext/2070436302/ain.o
 .comment       0x00000000       0x3d build/TEST/production/_ext/2070436302/scanchain.o
 .comment       0x00000000       0x3d build/TEST/production/_ext/2070436302/intadc.o
 .comment       0x00000000       0x3d build/TEST/production/_ext/2070436302/mod_refclk.o
 .comment       0x00000000       0x3d build/TEST/production/_ext/2070436302/cap.o
 .comment       0x00000000       0x3d build/TEST/production/_ext/801483606/app.o
 .comment       0x00000000       0x3d build/TEST/production/_ext/801483606/on_parameter_found.o
 .comment       0x00000000       0x3d build/TEST/production/_ext/1537666708/board.o
 .comment       0x00000000       0x3d build/TEST/production/_ext/1509319821/adc.o
 .comment       0x00000000       0x3d build/TEST/production/_ext/1509317981/can.o
 .comment       0x00000000       0x3d build/TEST/production/_ext/455916380/gpio.o
 .comment       0x00000000       0x3d build/TEST/production/_ext/1509311806/int.o
 .comment       0x00000000       0x3d build/TEST/production/_ext/1255152928/nvm.o
 .comment       0x00000000       0x3d build/TEST/production/_ext/1509304807/pwm.o
 .comment       0x00000000       0x3d build/TEST/production/_ext/353641468/refclk.o
 .comment       0x00000000       0x3d build/TEST/production/_ext/1509302145/spi.o
 .comment       0x00000000       0x3d build/TEST/production/_ext/1509302145/swspi.o
 .comment       0x00000000       0x3d build/TEST/production/_ext/401144697/systmr.o
 .comment       0x00000000       0x3d build/TEST/production/_ext/1261517080/usart.o
 .comment       0x00000000       0x3d build/TEST/production/_ext/1509298662/wdt.o
 .comment       0x00000000       0x3d build/TEST/production/_ext/210424401/rd_buffer.o
 .comment       0x00000000       0x3d build/TEST/production/_ext/210424401/parser.o
 .comment       0x00000000       0x3d build/TEST/production/_ext/210424401/string_utils.o
 .comment       0x00000000       0x3d build/TEST/production/_ext/783894060/planner.o
 .comment       0x00000000       0x3d build/TEST/production/_ext/73441385/system_exceptions.o
 .comment       0x00000000       0x3d build/TEST/production/_ext/73441385/system_init.o
 .comment       0x00000000       0x3d build/TEST/production/_ext/73441385/system_dbg.o
 .comment       0x00000000       0x3d build/TEST/production/_ext/73441385/system_time.o
 .comment       0x00000000       0x3d build/TEST/production/_ext/73441385/system_config.o
 .comment       0x00000000       0x3d build/TEST/production/_ext/73441385/system_comm.o
 .comment       0x00000000       0x3d build/TEST/production/_ext/73441385/system_error.o
 .comment       0x00000000       0x3d build/TEST/production/_ext/73441385/crc.o
 .comment       0x00000000       0x3d build/TEST/production/_ext/1360937237/main.o
 .comment       0x0000003c       0x19 c:/program files/microchip/xc32/v2.50/bin/bin/../../lib/gcc/pic32mx/4.8.3/../../../../pic32mx/lib/fpu64\libpic32.a(strcmp.o)
                                 0x1a (size before relaxing)
 .comment       0x00000055       0x19 c:/program files/microchip/xc32/v2.50/bin/bin/../../lib/gcc/pic32mx/4.8.3/../../../../pic32mx/lib/fpu64\libpic32.a(strlen.o)
                                 0x1a (size before relaxing)
 .comment       0x00000000       0x3d c:/program files/microchip/xc32/v2.50/bin/bin/../../lib/gcc/pic32mx/4.8.3/../../../../pic32mx/lib/fpu64\libpic32.a(default-bootstrap-exception-handler.o)
 .comment       0x00000000       0x3d c:/program files/microchip/xc32/v2.50/bin/bin/../../lib/gcc/pic32mx/4.8.3/../../../../pic32mx/lib/fpu64\libpic32.a(default-on-reset.o)
 .comment       0x00000000       0x3d c:/program files/microchip/xc32/v2.50/bin/bin/../../lib/gcc/pic32mx/4.8.3/../../../../pic32mx/lib/fpu64\libpic32.a(default-on-bootstrap.o)
 .comment       0x00000000       0x3d c:/program files/microchip/xc32/v2.50/bin/bin/../../lib/gcc/pic32mx/4.8.3/../../../../pic32mx/lib/fpu64\libpic32.a(defaultinterrupt.o)
 .comment       0x00000000       0x3d c:/program files/microchip/xc32/v2.50/bin/bin/../../lib/gcc/pic32mx/4.8.3/../../../../pic32mx/lib/fpu64\libpic32.a(default-cache-err-exception-handler.o)
 .comment       0x00000000       0x3d c:/program files/microchip/xc32/v2.50/bin/bin/../../lib/gcc/pic32mx/4.8.3/../../../../pic32mx/lib/fpu64\libpic32.a(default-simple-tlb-refill-exception-handler.o)
 .comment       0x0000006e       0x4f c:/program files/microchip/xc32/v2.50/bin/bin/../../lib/gcc/pic32mx/4.8.3/../../../../pic32mx/lib/fpu64\liblega-c.a(strtol.o)
                                 0x8c (size before relaxing)
 .comment       0x000000bd       0x50 c:/program files/microchip/xc32/v2.50/bin/bin/../../lib/gcc/pic32mx/4.8.3/../../../../pic32mx/lib/fpu64\liblega-c.a(fputc.o)
                                 0x8d (size before relaxing)
 .comment       0x0000010d       0x50 c:/program files/microchip/xc32/v2.50/bin/bin/../../lib/gcc/pic32mx/4.8.3/../../../../pic32mx/lib/fpu64\liblega-c.a(fputs.o)
                                 0x8d (size before relaxing)
 .comment       0x0000015d       0x51 c:/program files/microchip/xc32/v2.50/bin/bin/../../lib/gcc/pic32mx/4.8.3/../../../../pic32mx/lib/fpu64\liblega-c.a(printf_cdnopsuxX.eo)
                                 0x8e (size before relaxing)
 .comment       0x00000000       0x8e c:/program files/microchip/xc32/v2.50/bin/bin/../../lib/gcc/pic32mx/4.8.3/../../../../pic32mx/lib/fpu64\liblega-c.a(printf.o)
 .comment       0x000001ae       0x52 c:/program files/microchip/xc32/v2.50/bin/bin/../../lib/gcc/pic32mx/4.8.3/../../../../pic32mx/lib/fpu64\liblega-c.a(sprintf_cdnopsuxX.eo)
                                 0x8f (size before relaxing)
 .comment       0x00000200       0x51 c:/program files/microchip/xc32/v2.50/bin/bin/../../lib/gcc/pic32mx/4.8.3/../../../../pic32mx/lib/fpu64\liblega-c.a(sscanf_cdnopuxX.eo)
                                 0x8e (size before relaxing)
 .comment       0x00000251       0x4e c:/program files/microchip/xc32/v2.50/bin/bin/../../lib/gcc/pic32mx/4.8.3/../../../../pic32mx/lib/fpu64\liblega-c.a(ctype.o)
                                 0x8b (size before relaxing)
 .comment       0x0000029f       0x4e c:/program files/microchip/xc32/v2.50/bin/bin/../../lib/gcc/pic32mx/4.8.3/../../../../pic32mx/lib/fpu64\liblega-c.a(errno.o)
                                 0x8b (size before relaxing)
 .comment       0x000002ed       0x52 c:/program files/microchip/xc32/v2.50/bin/bin/../../lib/gcc/pic32mx/4.8.3/../../../../pic32mx/lib/fpu64\liblega-c.a(_doprnt_cdnopsuxX.eo)
                                 0x8f (size before relaxing)
 .comment       0x00000000       0x8f c:/program files/microchip/xc32/v2.50/bin/bin/../../lib/gcc/pic32mx/4.8.3/../../../../pic32mx/lib/fpu64\liblega-c.a(_doprnt.o)
 .comment       0x0000033f       0x53 c:/program files/microchip/xc32/v2.50/bin/bin/../../lib/gcc/pic32mx/4.8.3/../../../../pic32mx/lib/fpu64\liblega-c.a(_iobdata.o)
                                 0x90 (size before relaxing)
 .comment       0x00000392       0x54 c:/program files/microchip/xc32/v2.50/bin/bin/../../lib/gcc/pic32mx/4.8.3/../../../../pic32mx/lib/fpu64\liblega-c.a(_iobfuncs.o)
                                 0x91 (size before relaxing)
 .comment       0x000003e6       0x55 c:/program files/microchip/xc32/v2.50/bin/bin/../../lib/gcc/pic32mx/4.8.3/../../../../pic32mx/lib/fpu64\liblega-c.a(_iobstring.o)
                                 0x92 (size before relaxing)
 .comment       0x0000043b       0x52 c:/program files/microchip/xc32/v2.50/bin/bin/../../lib/gcc/pic32mx/4.8.3/../../../../pic32mx/lib/fpu64\liblega-c.a(_doscan.o)
                                 0x8f (size before relaxing)
 .comment       0x0000048d       0x4e c:/program files/microchip/xc32/v2.50/bin/bin/../../lib/gcc/pic32mx/4.8.3/../../../../pic32mx/lib/fpu64\liblega-c.a(stubs.o)
                                 0x8b (size before relaxing)
 .comment       0x000004db       0x4f c:/program files/microchip/xc32/v2.50/bin/bin/../../lib/gcc/pic32mx/4.8.3/../../../../pic32mx/lib/fpu64\liblega-c.a(strchr.o)
                                 0x8c (size before relaxing)
 .comment       0x0000052a       0x4f c:/program files/microchip/xc32/v2.50/bin/bin/../../lib/gcc/pic32mx/4.8.3/../../../../pic32mx/lib/fpu64\liblega-c.a(memset.o)
                                 0x8c (size before relaxing)
 .comment       0x00000000       0x3d c:/program files/microchip/xc32/v2.50/bin/bin/../../lib/gcc/pic32mx/4.8.3/../../../../pic32mx/lib/fpu64\liblega-c.a(malloc.o)
 .comment       0x00000000       0x3d c:/program files/microchip/xc32/v2.50/bin/bin/../../lib/gcc/pic32mx/4.8.3/../../../../pic32mx/lib/fpu64\liblega-c.a(malloc_realloc.o)
 .comment       0x00000579       0x50 c:/program files/microchip/xc32/v2.50/bin/bin/../../lib/gcc/pic32mx/4.8.3/../../../../pic32mx/lib/fpu64\liblega-c.a(strtoul.o)
                                 0x8d (size before relaxing)
 .comment       0x000005c9       0x50 c:/program files/microchip/xc32/v2.50/bin/bin/../../lib/gcc/pic32mx/4.8.3/../../../../pic32mx/lib/fpu64\liblega-c.a(strtoll.o)
                                 0x8d (size before relaxing)
 .comment       0x00000619       0x51 c:/program files/microchip/xc32/v2.50/bin/bin/../../lib/gcc/pic32mx/4.8.3/../../../../pic32mx/lib/fpu64\liblega-c.a(strtoull.o)
                                 0x8e (size before relaxing)
 .comment       0x0000066a       0x51 c:/program files/microchip/xc32/v2.50/bin/bin/../../lib/gcc/pic32mx/4.8.3/../../../../pic32mx/lib/fpu64\liblega-c.a(fullexit.o)
                                 0x8e (size before relaxing)
 .comment       0x000006bb       0x50 c:/program files/microchip/xc32/v2.50/bin/bin/../../lib/gcc/pic32mx/4.8.3/../../../../pic32mx/lib/fpu64\liblega-c.a(fgetc.o)
                                 0x8d (size before relaxing)
 .comment       0x0000070b       0x51 c:/program files/microchip/xc32/v2.50/bin/bin/../../lib/gcc/pic32mx/4.8.3/../../../../pic32mx/lib/fpu64\liblega-c.a(ungetc.o)
                                 0x8e (size before relaxing)
 .comment       0x0000075c       0x50 c:/program files/microchip/xc32/v2.50/bin/bin/../../lib/gcc/pic32mx/4.8.3/../../../../pic32mx/lib/fpu64\liblega-c.a(memmove.o)
                                 0x8d (size before relaxing)
 .comment       0x000007ac       0x4f c:/program files/microchip/xc32/v2.50/bin/bin/../../lib/gcc/pic32mx/4.8.3/../../../../pic32mx/lib/fpu64\liblega-c.a(memcpy.o)
                                 0x8c (size before relaxing)
 .comment       0x000007fb       0x52 c:/program files/microchip/xc32/v2.50/bin/bin/../../lib/gcc/pic32mx/4.8.3/../../../../pic32mx/lib/fpu64\liblega-c.a(_ioinit.o)
                                 0x8f (size before relaxing)
 .comment       0x0000084d       0x51 c:/program files/microchip/xc32/v2.50/bin/bin/../../lib/gcc/pic32mx/4.8.3/../../../../pic32mx/lib/fpu64\liblega-c.a(_cleanup.o)
                                 0x8e (size before relaxing)
 .comment       0x0000089e       0x53 c:/program files/microchip/xc32/v2.50/bin/bin/../../lib/gcc/pic32mx/4.8.3/../../../../pic32mx/lib/fpu64\liblega-c.a(_bufproc.o)
                                 0x90 (size before relaxing)
 .comment       0x00000000       0x3d c:/program files/microchip/xc32/v2.50/bin/bin/../../lib/gcc/pic32mx/4.8.3/../../../../pic32mx/lib/fpu64\libmfd.a(s_modf.o)
 .comment       0x00000000       0x3d c:/program files/microchip/xc32/v2.50/bin/bin/../../lib/gcc/pic32mx/4.8.3/../../../../pic32mx/lib/fpu64\libmfd.a(strtod.o)
 .comment       0x00000000       0x3d c:/program files/microchip/xc32/v2.50/bin/bin/../../lib/gcc/pic32mx/4.8.3/../../../../pic32mx/lib/fpu64\libmfd.a(strtof.o)
 .comment       0x00000000       0x3d c:/program files/microchip/xc32/v2.50/bin/bin/../../lib/gcc/pic32mx/4.8.3/fpu64\libgcc.a(_divdi3.o)
 .comment       0x00000000       0x3d c:/program files/microchip/xc32/v2.50/bin/bin/../../lib/gcc/pic32mx/4.8.3/fpu64\libgcc.a(_udivdi3.o)
 .comment       0x00000000       0x3d c:/program files/microchip/xc32/v2.50/bin/bin/../../lib/gcc/pic32mx/4.8.3/fpu64\libgcc.a(_umoddi3.o)
 .comment       0x000008f1       0x4b c:/program files/microchip/xc32/v2.50/bin/bin/../../lib/gcc/pic32mx/4.8.3/../../../../pic32mx/lib/fpu64\libpic32.a(sbrk.o)
                                 0x88 (size before relaxing)
 .comment       0x00000000       0x3d c:/program files/microchip/xc32/v2.50/bin/bin/../../lib/gcc/pic32mx/4.8.3/../../../../pic32mx/lib/fpu64\libpic32.a(_exit.o)
 .comment       0x0000093c       0x4e c:/program files/microchip/xc32/v2.50/bin/bin/../../lib/gcc/pic32mx/4.8.3/../../../../pic32mx/lib/fpu64\libpic32.a(isatty.o)
                                 0x8b (size before relaxing)
 .comment       0x00000000       0x3d c:/program files/microchip/xc32/v2.50/bin/bin/../../lib/gcc/pic32mx/4.8.3/../../../../pic32mx/lib/fpu64\libpic32.a(_mon_getc.o)
 .comment       0x00000000       0x3d c:/program files/microchip/xc32/v2.50/bin/bin/../../lib/gcc/pic32mx/4.8.3/../../../../pic32mx/lib/fpu64\libpic32.a(_mon_write.o)
 .comment       0x00000000       0x3d c:/program files/microchip/xc32/v2.50/bin/bin/../../lib/gcc/pic32mx/4.8.3/../../../../pic32mx/lib/fpu64\libpic32.a(xc32_uart.o)

.debug
 *(.debug)

.line
 *(.line)

.debug_srcinfo
 *(.debug_srcinfo)

.debug_sfnames
 *(.debug_sfnames)

.debug_aranges  0x00000000      0xc98
 *(.debug_aranges)
 .debug_aranges
                0x00000000       0x20 build/TEST/production/_ext/744274812/chrono.o
 .debug_aranges
                0x00000020       0x20 build/TEST/production/_ext/816358189/ad5641.o
 .debug_aranges
                0x00000040       0x50 build/TEST/production/_ext/2070436302/dio.o
 .debug_aranges
                0x00000090       0x20 build/TEST/production/_ext/2070436302/genclk.o
 .debug_aranges
                0x000000b0       0x38 build/TEST/production/_ext/2070436302/relay.o
 .debug_aranges
                0x000000e8       0x38 build/TEST/production/_ext/2070436302/unisequencer.o
 .debug_aranges
                0x00000120       0x40 build/TEST/production/_ext/2070436302/mod_pwm.o
 .debug_aranges
                0x00000160       0x48 build/TEST/production/_ext/2070436302/mod_spi.o
 .debug_aranges
                0x000001a8       0x38 build/TEST/production/_ext/2070436302/mod_swspi.o
 .debug_aranges
                0x000001e0       0x40 build/TEST/production/_ext/2070436302/mod_i2c.o
 .debug_aranges
                0x00000220       0x30 build/TEST/production/_ext/2070436302/aout.o
 .debug_aranges
                0x00000250       0x28 build/TEST/production/_ext/2070436302/ain.o
 .debug_aranges
                0x00000278       0x60 build/TEST/production/_ext/2070436302/scanchain.o
 .debug_aranges
                0x000002d8       0x28 build/TEST/production/_ext/2070436302/intadc.o
 .debug_aranges
                0x00000300       0x28 build/TEST/production/_ext/2070436302/mod_refclk.o
 .debug_aranges
                0x00000328       0x30 build/TEST/production/_ext/2070436302/cap.o
 .debug_aranges
                0x00000358       0x68 build/TEST/production/_ext/801483606/app.o
 .debug_aranges
                0x000003c0       0x20 build/TEST/production/_ext/801483606/on_parameter_found.o
 .debug_aranges
                0x000003e0       0x20 build/TEST/production/_ext/1537666708/board.o
 .debug_aranges
                0x00000400       0x40 build/TEST/production/_ext/1509319821/adc.o
 .debug_aranges
                0x00000440       0x18 build/TEST/production/_ext/1509317981/can.o
 .debug_aranges
                0x00000458       0x58 build/TEST/production/_ext/455916380/gpio.o
 .debug_aranges
                0x000004b0       0x28 build/TEST/production/_ext/1509311806/int.o
 .debug_aranges
                0x000004d8       0x68 build/TEST/production/_ext/1255152928/nvm.o
 .debug_aranges
                0x00000540       0x30 build/TEST/production/_ext/1509304807/pwm.o
 .debug_aranges
                0x00000570       0x28 build/TEST/production/_ext/353641468/refclk.o
 .debug_aranges
                0x00000598       0x60 build/TEST/production/_ext/1509302145/spi.o
 .debug_aranges
                0x000005f8       0x80 build/TEST/production/_ext/401144697/systmr.o
 .debug_aranges
                0x00000678       0xa8 build/TEST/production/_ext/1261517080/usart.o
 .debug_aranges
                0x00000720       0x28 build/TEST/production/_ext/1509298662/wdt.o
 .debug_aranges
                0x00000748       0x60 build/TEST/production/_ext/210424401/rd_buffer.o
 .debug_aranges
                0x000007a8       0x38 build/TEST/production/_ext/210424401/parser.o
 .debug_aranges
                0x000007e0       0x80 build/TEST/production/_ext/210424401/string_utils.o
 .debug_aranges
                0x00000860       0x68 build/TEST/production/_ext/783894060/planner.o
 .debug_aranges
                0x000008c8       0x20 build/TEST/production/_ext/73441385/system_exceptions.o
 .debug_aranges
                0x000008e8       0x20 build/TEST/production/_ext/73441385/system_init.o
 .debug_aranges
                0x00000908       0x20 build/TEST/production/_ext/73441385/system_dbg.o
 .debug_aranges
                0x00000928       0x48 build/TEST/production/_ext/73441385/system_time.o
 .debug_aranges
                0x00000970       0x18 build/TEST/production/_ext/73441385/system_config.o
 .debug_aranges
                0x00000988       0x50 build/TEST/production/_ext/73441385/system_comm.o
 .debug_aranges
                0x000009d8       0x38 build/TEST/production/_ext/73441385/system_error.o
 .debug_aranges
                0x00000a10       0x20 build/TEST/production/_ext/73441385/crc.o
 .debug_aranges
                0x00000a30       0x28 build/TEST/production/_ext/1360937237/main.o
 .debug_aranges
                0x00000a58       0x20 c:/program files/microchip/xc32/v2.50/bin/bin/../../lib/gcc/pic32mx/4.8.3/../../../../pic32mx/lib/fpu64\libpic32.a(default-bootstrap-exception-handler.o)
 .debug_aranges
                0x00000a78       0x20 c:/program files/microchip/xc32/v2.50/bin/bin/../../lib/gcc/pic32mx/4.8.3/../../../../pic32mx/lib/fpu64\libpic32.a(default-on-reset.o)
 .debug_aranges
                0x00000a98       0x20 c:/program files/microchip/xc32/v2.50/bin/bin/../../lib/gcc/pic32mx/4.8.3/../../../../pic32mx/lib/fpu64\libpic32.a(default-on-bootstrap.o)
 .debug_aranges
                0x00000ab8       0x20 c:/program files/microchip/xc32/v2.50/bin/bin/../../lib/gcc/pic32mx/4.8.3/../../../../pic32mx/lib/fpu64\libpic32.a(defaultinterrupt.o)
 .debug_aranges
                0x00000ad8       0x20 c:/program files/microchip/xc32/v2.50/bin/bin/../../lib/gcc/pic32mx/4.8.3/../../../../pic32mx/lib/fpu64\libpic32.a(default-cache-err-exception-handler.o)
 .debug_aranges
                0x00000af8       0x20 c:/program files/microchip/xc32/v2.50/bin/bin/../../lib/gcc/pic32mx/4.8.3/../../../../pic32mx/lib/fpu64\libpic32.a(default-simple-tlb-refill-exception-handler.o)
 .debug_aranges
                0x00000b18       0x20 c:/program files/microchip/xc32/v2.50/bin/bin/../../lib/gcc/pic32mx/4.8.3/../../../../pic32mx/lib/fpu64\libmfd.a(s_modf.o)
 .debug_aranges
                0x00000b38       0x20 c:/program files/microchip/xc32/v2.50/bin/bin/../../lib/gcc/pic32mx/4.8.3/../../../../pic32mx/lib/fpu64\libmfd.a(strtod.o)
 .debug_aranges
                0x00000b58       0x20 c:/program files/microchip/xc32/v2.50/bin/bin/../../lib/gcc/pic32mx/4.8.3/../../../../pic32mx/lib/fpu64\libmfd.a(strtof.o)
 .debug_aranges
                0x00000b78       0x20 c:/program files/microchip/xc32/v2.50/bin/bin/../../lib/gcc/pic32mx/4.8.3/fpu64\libgcc.a(_divdi3.o)
 .debug_aranges
                0x00000b98       0x20 c:/program files/microchip/xc32/v2.50/bin/bin/../../lib/gcc/pic32mx/4.8.3/fpu64\libgcc.a(_udivdi3.o)
 .debug_aranges
                0x00000bb8       0x20 c:/program files/microchip/xc32/v2.50/bin/bin/../../lib/gcc/pic32mx/4.8.3/fpu64\libgcc.a(_umoddi3.o)
 .debug_aranges
                0x00000bd8       0x40 c:/program files/microchip/xc32/v2.50/bin/bin/../../lib/gcc/pic32mx/4.8.3/../../../../pic32mx/lib/fpu64\libpic32.a(sbrk.o)
 .debug_aranges
                0x00000c18       0x20 c:/program files/microchip/xc32/v2.50/bin/bin/../../lib/gcc/pic32mx/4.8.3/../../../../pic32mx/lib/fpu64\libpic32.a(_exit.o)
 .debug_aranges
                0x00000c38       0x20 c:/program files/microchip/xc32/v2.50/bin/bin/../../lib/gcc/pic32mx/4.8.3/../../../../pic32mx/lib/fpu64\libpic32.a(isatty.o)
 .debug_aranges
                0x00000c58       0x20 c:/program files/microchip/xc32/v2.50/bin/bin/../../lib/gcc/pic32mx/4.8.3/../../../../pic32mx/lib/fpu64\libpic32.a(_mon_getc.o)
 .debug_aranges
                0x00000c78       0x20 c:/program files/microchip/xc32/v2.50/bin/bin/../../lib/gcc/pic32mx/4.8.3/../../../../pic32mx/lib/fpu64\libpic32.a(_mon_write.o)

.debug_pubnames
 *(.debug_pubnames)

.debug_info     0x00000000    0x1fefa
 *(.debug_info .gnu.linkonce.wi.*)
 .debug_info    0x00000000      0x395 build/TEST/production/_ext/744274812/chrono.o
 .debug_info    0x00000395      0x311 build/TEST/production/_ext/816358189/ad5641.o
 .debug_info    0x000006a6      0xaec build/TEST/production/_ext/2070436302/dio.o
 .debug_info    0x00001192      0xa25 build/TEST/production/_ext/2070436302/genclk.o
 .debug_info    0x00001bb7      0x711 build/TEST/production/_ext/2070436302/relay.o
 .debug_info    0x000022c8     0x17cc build/TEST/production/_ext/2070436302/unisequencer.o
 .debug_info    0x00003a94      0xe9b build/TEST/production/_ext/2070436302/mod_pwm.o
 .debug_info    0x0000492f     0x14d9 build/TEST/production/_ext/2070436302/mod_spi.o
 .debug_info    0x00005e08     0x129c build/TEST/production/_ext/2070436302/mod_swspi.o
 .debug_info    0x000070a4      0x335 build/TEST/production/_ext/2070436302/mod_i2c.o
 .debug_info    0x000073d9      0x49d build/TEST/production/_ext/2070436302/aout.o
 .debug_info    0x00007876      0x4cc build/TEST/production/_ext/2070436302/ain.o
 .debug_info    0x00007d42     0x2029 build/TEST/production/_ext/2070436302/scanchain.o
 .debug_info    0x00009d6b      0xb9c build/TEST/production/_ext/2070436302/intadc.o
 .debug_info    0x0000a907      0x891 build/TEST/production/_ext/2070436302/mod_refclk.o
 .debug_info    0x0000b198     0x173f build/TEST/production/_ext/2070436302/cap.o
 .debug_info    0x0000c8d7      0x787 build/TEST/production/_ext/801483606/app.o
 .debug_info    0x0000d05e     0x2524 build/TEST/production/_ext/801483606/on_parameter_found.o
 .debug_info    0x0000f582      0x953 build/TEST/production/_ext/1537666708/board.o
 .debug_info    0x0000fed5      0xf2f build/TEST/production/_ext/1509319821/adc.o
 .debug_info    0x00010e04      0x108 build/TEST/production/_ext/1509317981/can.o
 .debug_info    0x00010f0c      0xd5a build/TEST/production/_ext/455916380/gpio.o
 .debug_info    0x00011c66      0x298 build/TEST/production/_ext/1509311806/int.o
 .debug_info    0x00011efe      0x809 build/TEST/production/_ext/1255152928/nvm.o
 .debug_info    0x00012707     0x11db build/TEST/production/_ext/1509304807/pwm.o
 .debug_info    0x000138e2      0x440 build/TEST/production/_ext/353641468/refclk.o
 .debug_info    0x00013d22      0x967 build/TEST/production/_ext/1509302145/spi.o
 .debug_info    0x00014689     0x2908 build/TEST/production/_ext/401144697/systmr.o
 .debug_info    0x00016f91     0x2389 build/TEST/production/_ext/1261517080/usart.o
 .debug_info    0x0001931a      0x22b build/TEST/production/_ext/1509298662/wdt.o
 .debug_info    0x00019545      0x4e0 build/TEST/production/_ext/210424401/rd_buffer.o
 .debug_info    0x00019a25      0xd41 build/TEST/production/_ext/210424401/parser.o
 .debug_info    0x0001a766      0x86f build/TEST/production/_ext/210424401/string_utils.o
 .debug_info    0x0001afd5      0x713 build/TEST/production/_ext/783894060/planner.o
 .debug_info    0x0001b6e8      0x1f6 build/TEST/production/_ext/73441385/system_exceptions.o
 .debug_info    0x0001b8de      0x4e8 build/TEST/production/_ext/73441385/system_init.o
 .debug_info    0x0001bdc6      0x266 build/TEST/production/_ext/73441385/system_dbg.o
 .debug_info    0x0001c02c      0x61c build/TEST/production/_ext/73441385/system_time.o
 .debug_info    0x0001c648      0x143 build/TEST/production/_ext/73441385/system_config.o
 .debug_info    0x0001c78b      0xbdc build/TEST/production/_ext/73441385/system_comm.o
 .debug_info    0x0001d367      0x4b6 build/TEST/production/_ext/73441385/system_error.o
 .debug_info    0x0001d81d      0x1bd build/TEST/production/_ext/73441385/crc.o
 .debug_info    0x0001d9da      0x2c2 build/TEST/production/_ext/1360937237/main.o
 .debug_info    0x0001dc9c       0xf4 c:/program files/microchip/xc32/v2.50/bin/bin/../../lib/gcc/pic32mx/4.8.3/../../../../pic32mx/lib/fpu64\libpic32.a(default-bootstrap-exception-handler.o)
 .debug_info    0x0001dd90       0xcd c:/program files/microchip/xc32/v2.50/bin/bin/../../lib/gcc/pic32mx/4.8.3/../../../../pic32mx/lib/fpu64\libpic32.a(default-on-reset.o)
 .debug_info    0x0001de5d       0xd5 c:/program files/microchip/xc32/v2.50/bin/bin/../../lib/gcc/pic32mx/4.8.3/../../../../pic32mx/lib/fpu64\libpic32.a(default-on-bootstrap.o)
 .debug_info    0x0001df32       0xe7 c:/program files/microchip/xc32/v2.50/bin/bin/../../lib/gcc/pic32mx/4.8.3/../../../../pic32mx/lib/fpu64\libpic32.a(defaultinterrupt.o)
 .debug_info    0x0001e019       0xf4 c:/program files/microchip/xc32/v2.50/bin/bin/../../lib/gcc/pic32mx/4.8.3/../../../../pic32mx/lib/fpu64\libpic32.a(default-cache-err-exception-handler.o)
 .debug_info    0x0001e10d      0x104 c:/program files/microchip/xc32/v2.50/bin/bin/../../lib/gcc/pic32mx/4.8.3/../../../../pic32mx/lib/fpu64\libpic32.a(default-simple-tlb-refill-exception-handler.o)
 .debug_info    0x0001e211       0xbe c:/program files/microchip/xc32/v2.50/bin/bin/../../lib/gcc/pic32mx/4.8.3/../../../../pic32mx/lib/fpu64\libmfd.a(s_modf.o)
 .debug_info    0x0001e2cf       0xc4 c:/program files/microchip/xc32/v2.50/bin/bin/../../lib/gcc/pic32mx/4.8.3/../../../../pic32mx/lib/fpu64\libmfd.a(strtod.o)
 .debug_info    0x0001e393       0xc4 c:/program files/microchip/xc32/v2.50/bin/bin/../../lib/gcc/pic32mx/4.8.3/../../../../pic32mx/lib/fpu64\libmfd.a(strtof.o)
 .debug_info    0x0001e457      0x785 c:/program files/microchip/xc32/v2.50/bin/bin/../../lib/gcc/pic32mx/4.8.3/fpu64\libgcc.a(_divdi3.o)
 .debug_info    0x0001ebdc      0x751 c:/program files/microchip/xc32/v2.50/bin/bin/../../lib/gcc/pic32mx/4.8.3/fpu64\libgcc.a(_udivdi3.o)
 .debug_info    0x0001f32d      0x78e c:/program files/microchip/xc32/v2.50/bin/bin/../../lib/gcc/pic32mx/4.8.3/fpu64\libgcc.a(_umoddi3.o)
 .debug_info    0x0001fabb      0x131 c:/program files/microchip/xc32/v2.50/bin/bin/../../lib/gcc/pic32mx/4.8.3/../../../../pic32mx/lib/fpu64\libpic32.a(sbrk.o)
 .debug_info    0x0001fbec       0xbe c:/program files/microchip/xc32/v2.50/bin/bin/../../lib/gcc/pic32mx/4.8.3/../../../../pic32mx/lib/fpu64\libpic32.a(_exit.o)
 .debug_info    0x0001fcaa       0xc0 c:/program files/microchip/xc32/v2.50/bin/bin/../../lib/gcc/pic32mx/4.8.3/../../../../pic32mx/lib/fpu64\libpic32.a(isatty.o)
 .debug_info    0x0001fd6a       0xc7 c:/program files/microchip/xc32/v2.50/bin/bin/../../lib/gcc/pic32mx/4.8.3/../../../../pic32mx/lib/fpu64\libpic32.a(_mon_getc.o)
 .debug_info    0x0001fe31       0xc9 c:/program files/microchip/xc32/v2.50/bin/bin/../../lib/gcc/pic32mx/4.8.3/../../../../pic32mx/lib/fpu64\libpic32.a(_mon_write.o)

.debug_abbrev   0x00000000     0x4452
 *(.debug_abbrev)
 .debug_abbrev  0x00000000       0xc7 build/TEST/production/_ext/744274812/chrono.o
 .debug_abbrev  0x000000c7       0xdf build/TEST/production/_ext/816358189/ad5641.o
 .debug_abbrev  0x000001a6      0x1e0 build/TEST/production/_ext/2070436302/dio.o
 .debug_abbrev  0x00000386      0x1b6 build/TEST/production/_ext/2070436302/genclk.o
 .debug_abbrev  0x0000053c      0x166 build/TEST/production/_ext/2070436302/relay.o
 .debug_abbrev  0x000006a2      0x383 build/TEST/production/_ext/2070436302/unisequencer.o
 .debug_abbrev  0x00000a25      0x145 build/TEST/production/_ext/2070436302/mod_pwm.o
 .debug_abbrev  0x00000b6a      0x245 build/TEST/production/_ext/2070436302/mod_spi.o
 .debug_abbrev  0x00000daf      0x2d5 build/TEST/production/_ext/2070436302/mod_swspi.o
 .debug_abbrev  0x00001084       0x92 build/TEST/production/_ext/2070436302/mod_i2c.o
 .debug_abbrev  0x00001116      0x112 build/TEST/production/_ext/2070436302/aout.o
 .debug_abbrev  0x00001228      0x11f build/TEST/production/_ext/2070436302/ain.o
 .debug_abbrev  0x00001347      0x29b build/TEST/production/_ext/2070436302/scanchain.o
 .debug_abbrev  0x000015e2      0x1dd build/TEST/production/_ext/2070436302/intadc.o
 .debug_abbrev  0x000017bf      0x11c build/TEST/production/_ext/2070436302/mod_refclk.o
 .debug_abbrev  0x000018db      0x232 build/TEST/production/_ext/2070436302/cap.o
 .debug_abbrev  0x00001b0d      0x229 build/TEST/production/_ext/801483606/app.o
 .debug_abbrev  0x00001d36      0x24b build/TEST/production/_ext/801483606/on_parameter_found.o
 .debug_abbrev  0x00001f81      0x102 build/TEST/production/_ext/1537666708/board.o
 .debug_abbrev  0x00002083      0x19d build/TEST/production/_ext/1509319821/adc.o
 .debug_abbrev  0x00002220       0x1b build/TEST/production/_ext/1509317981/can.o
 .debug_abbrev  0x0000223b      0x1ad build/TEST/production/_ext/455916380/gpio.o
 .debug_abbrev  0x000023e8       0xb7 build/TEST/production/_ext/1509311806/int.o
 .debug_abbrev  0x0000249f      0x1c8 build/TEST/production/_ext/1255152928/nvm.o
 .debug_abbrev  0x00002667      0x16e build/TEST/production/_ext/1509304807/pwm.o
 .debug_abbrev  0x000027d5      0x106 build/TEST/production/_ext/353641468/refclk.o
 .debug_abbrev  0x000028db      0x16a build/TEST/production/_ext/1509302145/spi.o
 .debug_abbrev  0x00002a45      0x244 build/TEST/production/_ext/401144697/systmr.o
 .debug_abbrev  0x00002c89      0x1c9 build/TEST/production/_ext/1261517080/usart.o
 .debug_abbrev  0x00002e52       0xde build/TEST/production/_ext/1509298662/wdt.o
 .debug_abbrev  0x00002f30      0x119 build/TEST/production/_ext/210424401/rd_buffer.o
 .debug_abbrev  0x00003049      0x1d5 build/TEST/production/_ext/210424401/parser.o
 .debug_abbrev  0x0000321e      0x1e7 build/TEST/production/_ext/210424401/string_utils.o
 .debug_abbrev  0x00003405      0x1c3 build/TEST/production/_ext/783894060/planner.o
 .debug_abbrev  0x000035c8       0x6a build/TEST/production/_ext/73441385/system_exceptions.o
 .debug_abbrev  0x00003632      0x17d build/TEST/production/_ext/73441385/system_init.o
 .debug_abbrev  0x000037af       0xc8 build/TEST/production/_ext/73441385/system_dbg.o
 .debug_abbrev  0x00003877      0x103 build/TEST/production/_ext/73441385/system_time.o
 .debug_abbrev  0x0000397a       0x1b build/TEST/production/_ext/73441385/system_config.o
 .debug_abbrev  0x00003995      0x1aa build/TEST/production/_ext/73441385/system_comm.o
 .debug_abbrev  0x00003b3f      0x18c build/TEST/production/_ext/73441385/system_error.o
 .debug_abbrev  0x00003ccb       0x96 build/TEST/production/_ext/73441385/crc.o
 .debug_abbrev  0x00003d61       0xd8 build/TEST/production/_ext/1360937237/main.o
 .debug_abbrev  0x00003e39       0x28 c:/program files/microchip/xc32/v2.50/bin/bin/../../lib/gcc/pic32mx/4.8.3/../../../../pic32mx/lib/fpu64\libpic32.a(default-bootstrap-exception-handler.o)
 .debug_abbrev  0x00003e61       0x28 c:/program files/microchip/xc32/v2.50/bin/bin/../../lib/gcc/pic32mx/4.8.3/../../../../pic32mx/lib/fpu64\libpic32.a(default-on-reset.o)
 .debug_abbrev  0x00003e89       0x28 c:/program files/microchip/xc32/v2.50/bin/bin/../../lib/gcc/pic32mx/4.8.3/../../../../pic32mx/lib/fpu64\libpic32.a(default-on-bootstrap.o)
 .debug_abbrev  0x00003eb1       0x28 c:/program files/microchip/xc32/v2.50/bin/bin/../../lib/gcc/pic32mx/4.8.3/../../../../pic32mx/lib/fpu64\libpic32.a(defaultinterrupt.o)
 .debug_abbrev  0x00003ed9       0x28 c:/program files/microchip/xc32/v2.50/bin/bin/../../lib/gcc/pic32mx/4.8.3/../../../../pic32mx/lib/fpu64\libpic32.a(default-cache-err-exception-handler.o)
 .debug_abbrev  0x00003f01       0x28 c:/program files/microchip/xc32/v2.50/bin/bin/../../lib/gcc/pic32mx/4.8.3/../../../../pic32mx/lib/fpu64\libpic32.a(default-simple-tlb-refill-exception-handler.o)
 .debug_abbrev  0x00003f29       0x28 c:/program files/microchip/xc32/v2.50/bin/bin/../../lib/gcc/pic32mx/4.8.3/../../../../pic32mx/lib/fpu64\libmfd.a(s_modf.o)
 .debug_abbrev  0x00003f51       0x28 c:/program files/microchip/xc32/v2.50/bin/bin/../../lib/gcc/pic32mx/4.8.3/../../../../pic32mx/lib/fpu64\libmfd.a(strtod.o)
 .debug_abbrev  0x00003f79       0x28 c:/program files/microchip/xc32/v2.50/bin/bin/../../lib/gcc/pic32mx/4.8.3/../../../../pic32mx/lib/fpu64\libmfd.a(strtof.o)
 .debug_abbrev  0x00003fa1      0x13e c:/program files/microchip/xc32/v2.50/bin/bin/../../lib/gcc/pic32mx/4.8.3/fpu64\libgcc.a(_divdi3.o)
 .debug_abbrev  0x000040df      0x138 c:/program files/microchip/xc32/v2.50/bin/bin/../../lib/gcc/pic32mx/4.8.3/fpu64\libgcc.a(_udivdi3.o)
 .debug_abbrev  0x00004217      0x147 c:/program files/microchip/xc32/v2.50/bin/bin/../../lib/gcc/pic32mx/4.8.3/fpu64\libgcc.a(_umoddi3.o)
 .debug_abbrev  0x0000435e       0x54 c:/program files/microchip/xc32/v2.50/bin/bin/../../lib/gcc/pic32mx/4.8.3/../../../../pic32mx/lib/fpu64\libpic32.a(sbrk.o)
 .debug_abbrev  0x000043b2       0x28 c:/program files/microchip/xc32/v2.50/bin/bin/../../lib/gcc/pic32mx/4.8.3/../../../../pic32mx/lib/fpu64\libpic32.a(_exit.o)
 .debug_abbrev  0x000043da       0x28 c:/program files/microchip/xc32/v2.50/bin/bin/../../lib/gcc/pic32mx/4.8.3/../../../../pic32mx/lib/fpu64\libpic32.a(isatty.o)
 .debug_abbrev  0x00004402       0x28 c:/program files/microchip/xc32/v2.50/bin/bin/../../lib/gcc/pic32mx/4.8.3/../../../../pic32mx/lib/fpu64\libpic32.a(_mon_getc.o)
 .debug_abbrev  0x0000442a       0x28 c:/program files/microchip/xc32/v2.50/bin/bin/../../lib/gcc/pic32mx/4.8.3/../../../../pic32mx/lib/fpu64\libpic32.a(_mon_write.o)

.debug_line     0x00000000     0x753a
 *(.debug_line)
 .debug_line    0x00000000      0x138 build/TEST/production/_ext/744274812/chrono.o
 .debug_line    0x00000138      0x134 build/TEST/production/_ext/816358189/ad5641.o
 .debug_line    0x0000026c      0x29a build/TEST/production/_ext/2070436302/dio.o
 .debug_line    0x00000506      0x307 build/TEST/production/_ext/2070436302/genclk.o
 .debug_line    0x0000080d      0x207 build/TEST/production/_ext/2070436302/relay.o
 .debug_line    0x00000a14      0x5d6 build/TEST/production/_ext/2070436302/unisequencer.o
 .debug_line    0x00000fea      0x328 build/TEST/production/_ext/2070436302/mod_pwm.o
 .debug_line    0x00001312      0x449 build/TEST/production/_ext/2070436302/mod_spi.o
 .debug_line    0x0000175b      0x518 build/TEST/production/_ext/2070436302/mod_swspi.o
 .debug_line    0x00001c73      0x121 build/TEST/production/_ext/2070436302/mod_i2c.o
 .debug_line    0x00001d94      0x1fb build/TEST/production/_ext/2070436302/aout.o
 .debug_line    0x00001f8f      0x185 build/TEST/production/_ext/2070436302/ain.o
 .debug_line    0x00002114      0x6d6 build/TEST/production/_ext/2070436302/scanchain.o
 .debug_line    0x000027ea      0x406 build/TEST/production/_ext/2070436302/intadc.o
 .debug_line    0x00002bf0      0x248 build/TEST/production/_ext/2070436302/mod_refclk.o
 .debug_line    0x00002e38      0x458 build/TEST/production/_ext/2070436302/cap.o
 .debug_line    0x00003290      0x356 build/TEST/production/_ext/801483606/app.o
 .debug_line    0x000035e6      0x51e build/TEST/production/_ext/801483606/on_parameter_found.o
 .debug_line    0x00003b04      0x15c build/TEST/production/_ext/1537666708/board.o
 .debug_line    0x00003c60      0x232 build/TEST/production/_ext/1509319821/adc.o
 .debug_line    0x00003e92       0x1d build/TEST/production/_ext/1509317981/can.o
 .debug_line    0x00003eaf      0x302 build/TEST/production/_ext/455916380/gpio.o
 .debug_line    0x000041b1      0x146 build/TEST/production/_ext/1509311806/int.o
 .debug_line    0x000042f7      0x2a1 build/TEST/production/_ext/1255152928/nvm.o
 .debug_line    0x00004598      0x2ae build/TEST/production/_ext/1509304807/pwm.o
 .debug_line    0x00004846      0x164 build/TEST/production/_ext/353641468/refclk.o
 .debug_line    0x000049aa      0x24b build/TEST/production/_ext/1509302145/spi.o
 .debug_line    0x00004bf5        0x0 build/TEST/production/_ext/1509302145/swspi.o
 .debug_line    0x00004bf5      0x34a build/TEST/production/_ext/401144697/systmr.o
 .debug_line    0x00004f3f      0x343 build/TEST/production/_ext/1261517080/usart.o
 .debug_line    0x00005282      0x14e build/TEST/production/_ext/1509298662/wdt.o
 .debug_line    0x000053d0      0x1b3 build/TEST/production/_ext/210424401/rd_buffer.o
 .debug_line    0x00005583      0x1f9 build/TEST/production/_ext/210424401/parser.o
 .debug_line    0x0000577c      0x2cb build/TEST/production/_ext/210424401/string_utils.o
 .debug_line    0x00005a47      0x23c build/TEST/production/_ext/783894060/planner.o
 .debug_line    0x00005c83       0x80 build/TEST/production/_ext/73441385/system_exceptions.o
 .debug_line    0x00005d03      0x2a0 build/TEST/production/_ext/73441385/system_init.o
 .debug_line    0x00005fa3      0x106 build/TEST/production/_ext/73441385/system_dbg.o
 .debug_line    0x000060a9      0x17b build/TEST/production/_ext/73441385/system_time.o
 .debug_line    0x00006224       0x1d build/TEST/production/_ext/73441385/system_config.o
 .debug_line    0x00006241      0x345 build/TEST/production/_ext/73441385/system_comm.o
 .debug_line    0x00006586      0x1be build/TEST/production/_ext/73441385/system_error.o
 .debug_line    0x00006744       0xca build/TEST/production/_ext/73441385/crc.o
 .debug_line    0x0000680e      0x22c build/TEST/production/_ext/1360937237/main.o
 .debug_line    0x00006a3a       0xa6 c:/program files/microchip/xc32/v2.50/bin/bin/../../lib/gcc/pic32mx/4.8.3/../../../../pic32mx/lib/fpu64\libpic32.a(default-bootstrap-exception-handler.o)
 .debug_line    0x00006ae0       0x93 c:/program files/microchip/xc32/v2.50/bin/bin/../../lib/gcc/pic32mx/4.8.3/../../../../pic32mx/lib/fpu64\libpic32.a(default-on-reset.o)
 .debug_line    0x00006b73       0x97 c:/program files/microchip/xc32/v2.50/bin/bin/../../lib/gcc/pic32mx/4.8.3/../../../../pic32mx/lib/fpu64\libpic32.a(default-on-bootstrap.o)
 .debug_line    0x00006c0a       0xa5 c:/program files/microchip/xc32/v2.50/bin/bin/../../lib/gcc/pic32mx/4.8.3/../../../../pic32mx/lib/fpu64\libpic32.a(defaultinterrupt.o)
 .debug_line    0x00006caf       0xa6 c:/program files/microchip/xc32/v2.50/bin/bin/../../lib/gcc/pic32mx/4.8.3/../../../../pic32mx/lib/fpu64\libpic32.a(default-cache-err-exception-handler.o)
 .debug_line    0x00006d55       0xae c:/program files/microchip/xc32/v2.50/bin/bin/../../lib/gcc/pic32mx/4.8.3/../../../../pic32mx/lib/fpu64\libpic32.a(default-simple-tlb-refill-exception-handler.o)
 .debug_line    0x00006e03       0x79 c:/program files/microchip/xc32/v2.50/bin/bin/../../lib/gcc/pic32mx/4.8.3/../../../../pic32mx/lib/fpu64\libmfd.a(s_modf.o)
 .debug_line    0x00006e7c       0x87 c:/program files/microchip/xc32/v2.50/bin/bin/../../lib/gcc/pic32mx/4.8.3/../../../../pic32mx/lib/fpu64\libmfd.a(strtod.o)
 .debug_line    0x00006f03       0x87 c:/program files/microchip/xc32/v2.50/bin/bin/../../lib/gcc/pic32mx/4.8.3/../../../../pic32mx/lib/fpu64\libmfd.a(strtof.o)
 .debug_line    0x00006f8a       0xff c:/program files/microchip/xc32/v2.50/bin/bin/../../lib/gcc/pic32mx/4.8.3/fpu64\libgcc.a(_divdi3.o)
 .debug_line    0x00007089       0xf7 c:/program files/microchip/xc32/v2.50/bin/bin/../../lib/gcc/pic32mx/4.8.3/fpu64\libgcc.a(_udivdi3.o)
 .debug_line    0x00007180      0x109 c:/program files/microchip/xc32/v2.50/bin/bin/../../lib/gcc/pic32mx/4.8.3/fpu64\libgcc.a(_umoddi3.o)
 .debug_line    0x00007289       0x87 c:/program files/microchip/xc32/v2.50/bin/bin/../../lib/gcc/pic32mx/4.8.3/../../../../pic32mx/lib/fpu64\libpic32.a(sbrk.o)
 .debug_line    0x00007310       0x88 c:/program files/microchip/xc32/v2.50/bin/bin/../../lib/gcc/pic32mx/4.8.3/../../../../pic32mx/lib/fpu64\libpic32.a(_exit.o)
 .debug_line    0x00007398       0x89 c:/program files/microchip/xc32/v2.50/bin/bin/../../lib/gcc/pic32mx/4.8.3/../../../../pic32mx/lib/fpu64\libpic32.a(isatty.o)
 .debug_line    0x00007421       0x8c c:/program files/microchip/xc32/v2.50/bin/bin/../../lib/gcc/pic32mx/4.8.3/../../../../pic32mx/lib/fpu64\libpic32.a(_mon_getc.o)
 .debug_line    0x000074ad       0x8d c:/program files/microchip/xc32/v2.50/bin/bin/../../lib/gcc/pic32mx/4.8.3/../../../../pic32mx/lib/fpu64\libpic32.a(_mon_write.o)
 .debug_line    0x0000753a        0x0 c:/program files/microchip/xc32/v2.50/bin/bin/../../lib/gcc/pic32mx/4.8.3/../../../../pic32mx/lib/fpu64\libpic32.a(xc32_uart.o)

.debug_frame    0x00000000     0x1a58
 *(.debug_frame)
 .debug_frame   0x00000000       0x2c build/TEST/production/_ext/744274812/chrono.o
 .debug_frame   0x0000002c       0x34 build/TEST/production/_ext/816358189/ad5641.o
 .debug_frame   0x00000060       0xe8 build/TEST/production/_ext/2070436302/dio.o
 .debug_frame   0x00000148       0x40 build/TEST/production/_ext/2070436302/genclk.o
 .debug_frame   0x00000188       0x90 build/TEST/production/_ext/2070436302/relay.o
 .debug_frame   0x00000218       0xb4 build/TEST/production/_ext/2070436302/unisequencer.o
 .debug_frame   0x000002cc       0xa0 build/TEST/production/_ext/2070436302/mod_pwm.o
 .debug_frame   0x0000036c       0xd8 build/TEST/production/_ext/2070436302/mod_spi.o
 .debug_frame   0x00000444       0xb8 build/TEST/production/_ext/2070436302/mod_swspi.o
 .debug_frame   0x000004fc       0x60 build/TEST/production/_ext/2070436302/mod_i2c.o
 .debug_frame   0x0000055c       0x5c build/TEST/production/_ext/2070436302/aout.o
 .debug_frame   0x000005b8       0x48 build/TEST/production/_ext/2070436302/ain.o
 .debug_frame   0x00000600      0x198 build/TEST/production/_ext/2070436302/scanchain.o
 .debug_frame   0x00000798       0x60 build/TEST/production/_ext/2070436302/intadc.o
 .debug_frame   0x000007f8       0x5c build/TEST/production/_ext/2070436302/mod_refclk.o
 .debug_frame   0x00000854       0x80 build/TEST/production/_ext/2070436302/cap.o
 .debug_frame   0x000008d4      0x108 build/TEST/production/_ext/801483606/app.o
 .debug_frame   0x000009dc       0x34 build/TEST/production/_ext/801483606/on_parameter_found.o
 .debug_frame   0x00000a10       0x30 build/TEST/production/_ext/1537666708/board.o
 .debug_frame   0x00000a40       0x60 build/TEST/production/_ext/1509319821/adc.o
 .debug_frame   0x00000aa0       0xb0 build/TEST/production/_ext/455916380/gpio.o
 .debug_frame   0x00000b50       0x30 build/TEST/production/_ext/1509311806/int.o
 .debug_frame   0x00000b80      0x110 build/TEST/production/_ext/1255152928/nvm.o
 .debug_frame   0x00000c90       0x40 build/TEST/production/_ext/1509304807/pwm.o
 .debug_frame   0x00000cd0       0x30 build/TEST/production/_ext/353641468/refclk.o
 .debug_frame   0x00000d00       0xa0 build/TEST/production/_ext/1509302145/spi.o
 .debug_frame   0x00000da0       0xe8 build/TEST/production/_ext/401144697/systmr.o
 .debug_frame   0x00000e88      0x168 build/TEST/production/_ext/1261517080/usart.o
 .debug_frame   0x00000ff0       0x30 build/TEST/production/_ext/1509298662/wdt.o
 .debug_frame   0x00001020       0xb8 build/TEST/production/_ext/210424401/rd_buffer.o
 .debug_frame   0x000010d8       0x70 build/TEST/production/_ext/210424401/parser.o
 .debug_frame   0x00001148      0x130 build/TEST/production/_ext/210424401/string_utils.o
 .debug_frame   0x00001278      0x17c build/TEST/production/_ext/783894060/planner.o
 .debug_frame   0x000013f4       0x2c build/TEST/production/_ext/73441385/system_exceptions.o
 .debug_frame   0x00001420       0x30 build/TEST/production/_ext/73441385/system_init.o
 .debug_frame   0x00001450       0x2c build/TEST/production/_ext/73441385/system_dbg.o
 .debug_frame   0x0000147c       0xb8 build/TEST/production/_ext/73441385/system_time.o
 .debug_frame   0x00001534      0x170 build/TEST/production/_ext/73441385/system_comm.o
 .debug_frame   0x000016a4       0x6c build/TEST/production/_ext/73441385/system_error.o
 .debug_frame   0x00001710       0x20 build/TEST/production/_ext/73441385/crc.o
 .debug_frame   0x00001730       0x38 build/TEST/production/_ext/1360937237/main.o
 .debug_frame   0x00001768       0x2c c:/program files/microchip/xc32/v2.50/bin/bin/../../lib/gcc/pic32mx/4.8.3/../../../../pic32mx/lib/fpu64\libpic32.a(default-bootstrap-exception-handler.o)
 .debug_frame   0x00001794       0x20 c:/program files/microchip/xc32/v2.50/bin/bin/../../lib/gcc/pic32mx/4.8.3/../../../../pic32mx/lib/fpu64\libpic32.a(default-on-reset.o)
 .debug_frame   0x000017b4       0x20 c:/program files/microchip/xc32/v2.50/bin/bin/../../lib/gcc/pic32mx/4.8.3/../../../../pic32mx/lib/fpu64\libpic32.a(default-on-bootstrap.o)
 .debug_frame   0x000017d4       0x20 c:/program files/microchip/xc32/v2.50/bin/bin/../../lib/gcc/pic32mx/4.8.3/../../../../pic32mx/lib/fpu64\libpic32.a(defaultinterrupt.o)
 .debug_frame   0x000017f4       0x2c c:/program files/microchip/xc32/v2.50/bin/bin/../../lib/gcc/pic32mx/4.8.3/../../../../pic32mx/lib/fpu64\libpic32.a(default-cache-err-exception-handler.o)
 .debug_frame   0x00001820       0x2c c:/program files/microchip/xc32/v2.50/bin/bin/../../lib/gcc/pic32mx/4.8.3/../../../../pic32mx/lib/fpu64\libpic32.a(default-simple-tlb-refill-exception-handler.o)
 .debug_frame   0x0000184c       0x20 c:/program files/microchip/xc32/v2.50/bin/bin/../../lib/gcc/pic32mx/4.8.3/../../../../pic32mx/lib/fpu64\libmfd.a(s_modf.o)
 .debug_frame   0x0000186c       0x20 c:/program files/microchip/xc32/v2.50/bin/bin/../../lib/gcc/pic32mx/4.8.3/../../../../pic32mx/lib/fpu64\libmfd.a(strtod.o)
 .debug_frame   0x0000188c       0x2c c:/program files/microchip/xc32/v2.50/bin/bin/../../lib/gcc/pic32mx/4.8.3/../../../../pic32mx/lib/fpu64\libmfd.a(strtof.o)
 .debug_frame   0x000018b8       0x20 c:/program files/microchip/xc32/v2.50/bin/bin/../../lib/gcc/pic32mx/4.8.3/fpu64\libgcc.a(_divdi3.o)
 .debug_frame   0x000018d8       0x20 c:/program files/microchip/xc32/v2.50/bin/bin/../../lib/gcc/pic32mx/4.8.3/fpu64\libgcc.a(_udivdi3.o)
 .debug_frame   0x000018f8       0x20 c:/program files/microchip/xc32/v2.50/bin/bin/../../lib/gcc/pic32mx/4.8.3/fpu64\libgcc.a(_umoddi3.o)
 .debug_frame   0x00001918       0xa4 c:/program files/microchip/xc32/v2.50/bin/bin/../../lib/gcc/pic32mx/4.8.3/../../../../pic32mx/lib/fpu64\libpic32.a(sbrk.o)
 .debug_frame   0x000019bc       0x20 c:/program files/microchip/xc32/v2.50/bin/bin/../../lib/gcc/pic32mx/4.8.3/../../../../pic32mx/lib/fpu64\libpic32.a(_exit.o)
 .debug_frame   0x000019dc       0x20 c:/program files/microchip/xc32/v2.50/bin/bin/../../lib/gcc/pic32mx/4.8.3/../../../../pic32mx/lib/fpu64\libpic32.a(isatty.o)
 .debug_frame   0x000019fc       0x2c c:/program files/microchip/xc32/v2.50/bin/bin/../../lib/gcc/pic32mx/4.8.3/../../../../pic32mx/lib/fpu64\libpic32.a(_mon_getc.o)
 .debug_frame   0x00001a28       0x30 c:/program files/microchip/xc32/v2.50/bin/bin/../../lib/gcc/pic32mx/4.8.3/../../../../pic32mx/lib/fpu64\libpic32.a(_mon_write.o)

.debug_str      0x00000000      0x390
 *(.debug_str)
 .debug_str     0x00000000        0x0 build/TEST/production/_ext/744274812/chrono.o
 .debug_str     0x00000000        0x0 build/TEST/production/_ext/816358189/ad5641.o
 .debug_str     0x00000000        0x0 build/TEST/production/_ext/2070436302/dio.o
 .debug_str     0x00000000        0x0 build/TEST/production/_ext/2070436302/genclk.o
 .debug_str     0x00000000        0xa build/TEST/production/_ext/2070436302/relay.o
 .debug_str     0x0000000a       0x1d build/TEST/production/_ext/2070436302/unisequencer.o
 .debug_str     0x00000027        0xe build/TEST/production/_ext/2070436302/mod_pwm.o
 .debug_str     0x00000035       0x15 build/TEST/production/_ext/2070436302/mod_spi.o
 .debug_str     0x0000004a       0xaa build/TEST/production/_ext/2070436302/mod_swspi.o
 .debug_str     0x000000f4       0x14 build/TEST/production/_ext/2070436302/mod_i2c.o
 .debug_str     0x00000108        0x8 build/TEST/production/_ext/2070436302/aout.o
 .debug_str     0x00000110        0xd build/TEST/production/_ext/2070436302/ain.o
 .debug_str     0x0000011d       0xd7 build/TEST/production/_ext/2070436302/scanchain.o
 .debug_str     0x000001f4        0x0 build/TEST/production/_ext/2070436302/intadc.o
 .debug_str     0x000001f4        0x0 build/TEST/production/_ext/2070436302/mod_refclk.o
 .debug_str     0x000001f4        0x9 build/TEST/production/_ext/2070436302/cap.o
 .debug_str     0x000001fd        0xa build/TEST/production/_ext/801483606/app.o
 .debug_str     0x00000207       0x47 build/TEST/production/_ext/801483606/on_parameter_found.o
 .debug_str     0x0000024e        0x0 build/TEST/production/_ext/1537666708/board.o
 .debug_str     0x0000024e       0x11 build/TEST/production/_ext/1509319821/adc.o
 .debug_str     0x0000025f        0x0 build/TEST/production/_ext/1509317981/can.o
 .debug_str     0x0000025f       0x1e build/TEST/production/_ext/455916380/gpio.o
 .debug_str     0x0000027d        0x0 build/TEST/production/_ext/1509311806/int.o
 .debug_str     0x0000027d        0x0 build/TEST/production/_ext/1255152928/nvm.o
 .debug_str     0x0000027d       0x2d build/TEST/production/_ext/1509304807/pwm.o
 .debug_str     0x000002aa        0x0 build/TEST/production/_ext/353641468/refclk.o
 .debug_str     0x000002aa        0x6 build/TEST/production/_ext/1509302145/spi.o
 .debug_str     0x000002b0        0x0 build/TEST/production/_ext/1509302145/swspi.o
 .debug_str     0x000002b0       0x4c build/TEST/production/_ext/401144697/systmr.o
 .debug_str     0x000002fc       0x3e build/TEST/production/_ext/1261517080/usart.o
 .debug_str     0x0000033a        0x0 build/TEST/production/_ext/1509298662/wdt.o
 .debug_str     0x0000033a        0xf build/TEST/production/_ext/210424401/rd_buffer.o
 .debug_str     0x00000349        0x0 build/TEST/production/_ext/210424401/parser.o
 .debug_str     0x00000349       0x21 build/TEST/production/_ext/210424401/string_utils.o
 .debug_str     0x0000036a        0xd build/TEST/production/_ext/783894060/planner.o
 .debug_str     0x00000377        0x0 build/TEST/production/_ext/73441385/system_exceptions.o
 .debug_str     0x00000377        0x0 build/TEST/production/_ext/73441385/system_init.o
 .debug_str     0x00000377        0x0 build/TEST/production/_ext/73441385/system_dbg.o
 .debug_str     0x00000377        0x0 build/TEST/production/_ext/73441385/system_time.o
 .debug_str     0x00000377        0x0 build/TEST/production/_ext/73441385/system_config.o
 .debug_str     0x00000377        0x0 build/TEST/production/_ext/73441385/system_comm.o
 .debug_str     0x00000377       0x19 build/TEST/production/_ext/73441385/system_error.o
 .debug_str     0x00000390        0x0 build/TEST/production/_ext/73441385/crc.o
 .debug_str     0x00000390        0x0 build/TEST/production/_ext/1360937237/main.o
 .debug_str     0x00000390        0x0 c:/program files/microchip/xc32/v2.50/bin/bin/../../lib/gcc/pic32mx/4.8.3/../../../../pic32mx/lib/fpu64\libpic32.a(default-bootstrap-exception-handler.o)
 .debug_str     0x00000390        0x0 c:/program files/microchip/xc32/v2.50/bin/bin/../../lib/gcc/pic32mx/4.8.3/../../../../pic32mx/lib/fpu64\libpic32.a(default-on-reset.o)
 .debug_str     0x00000390        0x0 c:/program files/microchip/xc32/v2.50/bin/bin/../../lib/gcc/pic32mx/4.8.3/../../../../pic32mx/lib/fpu64\libpic32.a(default-on-bootstrap.o)
 .debug_str     0x00000390        0x0 c:/program files/microchip/xc32/v2.50/bin/bin/../../lib/gcc/pic32mx/4.8.3/../../../../pic32mx/lib/fpu64\libpic32.a(defaultinterrupt.o)
 .debug_str     0x00000390        0x0 c:/program files/microchip/xc32/v2.50/bin/bin/../../lib/gcc/pic32mx/4.8.3/../../../../pic32mx/lib/fpu64\libpic32.a(default-cache-err-exception-handler.o)
 .debug_str     0x00000390        0x0 c:/program files/microchip/xc32/v2.50/bin/bin/../../lib/gcc/pic32mx/4.8.3/../../../../pic32mx/lib/fpu64\libpic32.a(default-simple-tlb-refill-exception-handler.o)
 .debug_str     0x00000390        0x0 c:/program files/microchip/xc32/v2.50/bin/bin/../../lib/gcc/pic32mx/4.8.3/../../../../pic32mx/lib/fpu64\libmfd.a(s_modf.o)
 .debug_str     0x00000390        0x0 c:/program files/microchip/xc32/v2.50/bin/bin/../../lib/gcc/pic32mx/4.8.3/../../../../pic32mx/lib/fpu64\libmfd.a(strtod.o)
 .debug_str     0x00000390        0x0 c:/program files/microchip/xc32/v2.50/bin/bin/../../lib/gcc/pic32mx/4.8.3/../../../../pic32mx/lib/fpu64\libmfd.a(strtof.o)
 .debug_str     0x00000390        0x0 c:/program files/microchip/xc32/v2.50/bin/bin/../../lib/gcc/pic32mx/4.8.3/fpu64\libgcc.a(_divdi3.o)
 .debug_str     0x00000390        0x0 c:/program files/microchip/xc32/v2.50/bin/bin/../../lib/gcc/pic32mx/4.8.3/fpu64\libgcc.a(_udivdi3.o)
 .debug_str     0x00000390        0x0 c:/program files/microchip/xc32/v2.50/bin/bin/../../lib/gcc/pic32mx/4.8.3/fpu64\libgcc.a(_umoddi3.o)
 .debug_str     0x00000390        0x0 c:/program files/microchip/xc32/v2.50/bin/bin/../../lib/gcc/pic32mx/4.8.3/../../../../pic32mx/lib/fpu64\libpic32.a(sbrk.o)
 .debug_str     0x00000390        0x0 c:/program files/microchip/xc32/v2.50/bin/bin/../../lib/gcc/pic32mx/4.8.3/../../../../pic32mx/lib/fpu64\libpic32.a(_exit.o)
 .debug_str     0x00000390        0x0 c:/program files/microchip/xc32/v2.50/bin/bin/../../lib/gcc/pic32mx/4.8.3/../../../../pic32mx/lib/fpu64\libpic32.a(isatty.o)
 .debug_str     0x00000390        0x0 c:/program files/microchip/xc32/v2.50/bin/bin/../../lib/gcc/pic32mx/4.8.3/../../../../pic32mx/lib/fpu64\libpic32.a(_mon_getc.o)
 .debug_str     0x00000390        0x0 c:/program files/microchip/xc32/v2.50/bin/bin/../../lib/gcc/pic32mx/4.8.3/../../../../pic32mx/lib/fpu64\libpic32.a(_mon_write.o)
 .debug_str     0x00000390        0x0 c:/program files/microchip/xc32/v2.50/bin/bin/../../lib/gcc/pic32mx/4.8.3/../../../../pic32mx/lib/fpu64\libpic32.a(xc32_uart.o)

.debug_loc      0x00000000     0xc7f1
 *(.debug_loc)
 .debug_loc     0x00000000       0xbe build/TEST/production/_ext/816358189/ad5641.o
 .debug_loc     0x000000be      0x32d build/TEST/production/_ext/2070436302/dio.o
 .debug_loc     0x000003eb      0x3b8 build/TEST/production/_ext/2070436302/genclk.o
 .debug_loc     0x000007a3      0x572 build/TEST/production/_ext/2070436302/relay.o
 .debug_loc     0x00000d15      0xd4a build/TEST/production/_ext/2070436302/unisequencer.o
 .debug_loc     0x00001a5f      0x489 build/TEST/production/_ext/2070436302/mod_pwm.o
 .debug_loc     0x00001ee8      0x740 build/TEST/production/_ext/2070436302/mod_spi.o
 .debug_loc     0x00002628      0x606 build/TEST/production/_ext/2070436302/mod_swspi.o
 .debug_loc     0x00002c2e      0x103 build/TEST/production/_ext/2070436302/aout.o
 .debug_loc     0x00002d31       0x84 build/TEST/production/_ext/2070436302/ain.o
 .debug_loc     0x00002db5     0x1883 build/TEST/production/_ext/2070436302/scanchain.o
 .debug_loc     0x00004638      0x4a3 build/TEST/production/_ext/2070436302/intadc.o
 .debug_loc     0x00004adb      0x20c build/TEST/production/_ext/2070436302/mod_refclk.o
 .debug_loc     0x00004ce7      0x1f9 build/TEST/production/_ext/2070436302/cap.o
 .debug_loc     0x00004ee0      0x231 build/TEST/production/_ext/801483606/app.o
 .debug_loc     0x00005111     0x269d build/TEST/production/_ext/801483606/on_parameter_found.o
 .debug_loc     0x000077ae       0x20 build/TEST/production/_ext/1537666708/board.o
 .debug_loc     0x000077ce      0x11b build/TEST/production/_ext/1509319821/adc.o
 .debug_loc     0x000078e9      0x97c build/TEST/production/_ext/455916380/gpio.o
 .debug_loc     0x00008265      0x1a5 build/TEST/production/_ext/1255152928/nvm.o
 .debug_loc     0x0000840a       0x8d build/TEST/production/_ext/1509304807/pwm.o
 .debug_loc     0x00008497       0x65 build/TEST/production/_ext/353641468/refclk.o
 .debug_loc     0x000084fc      0x296 build/TEST/production/_ext/1509302145/spi.o
 .debug_loc     0x00008792      0x2e9 build/TEST/production/_ext/401144697/systmr.o
 .debug_loc     0x00008a7b      0x512 build/TEST/production/_ext/1261517080/usart.o
 .debug_loc     0x00008f8d      0x348 build/TEST/production/_ext/210424401/rd_buffer.o
 .debug_loc     0x000092d5      0x430 build/TEST/production/_ext/210424401/parser.o
 .debug_loc     0x00009705      0xbc9 build/TEST/production/_ext/210424401/string_utils.o
 .debug_loc     0x0000a2ce      0x272 build/TEST/production/_ext/783894060/planner.o
 .debug_loc     0x0000a540       0x21 build/TEST/production/_ext/73441385/system_dbg.o
 .debug_loc     0x0000a561       0x84 build/TEST/production/_ext/73441385/system_time.o
 .debug_loc     0x0000a5e5       0xea build/TEST/production/_ext/73441385/system_comm.o
 .debug_loc     0x0000a6cf       0xb8 build/TEST/production/_ext/73441385/system_error.o
 .debug_loc     0x0000a787       0x8d build/TEST/production/_ext/73441385/crc.o
 .debug_loc     0x0000a814       0x2c c:/program files/microchip/xc32/v2.50/bin/bin/../../lib/gcc/pic32mx/4.8.3/../../../../pic32mx/lib/fpu64\libpic32.a(default-bootstrap-exception-handler.o)
 .debug_loc     0x0000a840       0x2c c:/program files/microchip/xc32/v2.50/bin/bin/../../lib/gcc/pic32mx/4.8.3/../../../../pic32mx/lib/fpu64\libpic32.a(default-cache-err-exception-handler.o)
 .debug_loc     0x0000a86c       0x2c c:/program files/microchip/xc32/v2.50/bin/bin/../../lib/gcc/pic32mx/4.8.3/../../../../pic32mx/lib/fpu64\libpic32.a(default-simple-tlb-refill-exception-handler.o)
 .debug_loc     0x0000a898      0x9ee c:/program files/microchip/xc32/v2.50/bin/bin/../../lib/gcc/pic32mx/4.8.3/fpu64\libgcc.a(_divdi3.o)
 .debug_loc     0x0000b286      0xa6a c:/program files/microchip/xc32/v2.50/bin/bin/../../lib/gcc/pic32mx/4.8.3/fpu64\libgcc.a(_udivdi3.o)
 .debug_loc     0x0000bcf0      0xa3d c:/program files/microchip/xc32/v2.50/bin/bin/../../lib/gcc/pic32mx/4.8.3/fpu64\libgcc.a(_umoddi3.o)
 .debug_loc     0x0000c72d       0x78 c:/program files/microchip/xc32/v2.50/bin/bin/../../lib/gcc/pic32mx/4.8.3/../../../../pic32mx/lib/fpu64\libpic32.a(sbrk.o)
 .debug_loc     0x0000c7a5       0x20 c:/program files/microchip/xc32/v2.50/bin/bin/../../lib/gcc/pic32mx/4.8.3/../../../../pic32mx/lib/fpu64\libpic32.a(_mon_getc.o)
 .debug_loc     0x0000c7c5       0x2c c:/program files/microchip/xc32/v2.50/bin/bin/../../lib/gcc/pic32mx/4.8.3/../../../../pic32mx/lib/fpu64\libpic32.a(_mon_write.o)

.debug_macinfo
 *(.debug_macinfo)

.debug_weaknames
 *(.debug_weaknames)

.debug_funcnames
 *(.debug_funcnames)

.debug_typenames
 *(.debug_typenames)

.debug_varnames
 *(.debug_varnames)

.debug_pubtypes
 *(.debug_pubtypes)

.debug_ranges   0x00000000     0x1358
 *(.debug_ranges)
 .debug_ranges  0x00000000       0x10 build/TEST/production/_ext/744274812/chrono.o
 .debug_ranges  0x00000010       0x10 build/TEST/production/_ext/816358189/ad5641.o
 .debug_ranges  0x00000020       0x40 build/TEST/production/_ext/2070436302/dio.o
 .debug_ranges  0x00000060       0x88 build/TEST/production/_ext/2070436302/genclk.o
 .debug_ranges  0x000000e8       0x60 build/TEST/production/_ext/2070436302/relay.o
 .debug_ranges  0x00000148      0x1f0 build/TEST/production/_ext/2070436302/unisequencer.o
 .debug_ranges  0x00000338       0x30 build/TEST/production/_ext/2070436302/mod_pwm.o
 .debug_ranges  0x00000368       0xe0 build/TEST/production/_ext/2070436302/mod_spi.o
 .debug_ranges  0x00000448      0x150 build/TEST/production/_ext/2070436302/mod_swspi.o
 .debug_ranges  0x00000598       0x30 build/TEST/production/_ext/2070436302/mod_i2c.o
 .debug_ranges  0x000005c8       0x20 build/TEST/production/_ext/2070436302/aout.o
 .debug_ranges  0x000005e8       0x18 build/TEST/production/_ext/2070436302/ain.o
 .debug_ranges  0x00000600      0x280 build/TEST/production/_ext/2070436302/scanchain.o
 .debug_ranges  0x00000880       0x80 build/TEST/production/_ext/2070436302/intadc.o
 .debug_ranges  0x00000900       0x30 build/TEST/production/_ext/2070436302/mod_refclk.o
 .debug_ranges  0x00000930       0x60 build/TEST/production/_ext/2070436302/cap.o
 .debug_ranges  0x00000990       0x70 build/TEST/production/_ext/801483606/app.o
 .debug_ranges  0x00000a00       0xa0 build/TEST/production/_ext/801483606/on_parameter_found.o
 .debug_ranges  0x00000aa0       0x10 build/TEST/production/_ext/1537666708/board.o
 .debug_ranges  0x00000ab0       0x30 build/TEST/production/_ext/1509319821/adc.o
 .debug_ranges  0x00000ae0       0x48 build/TEST/production/_ext/455916380/gpio.o
 .debug_ranges  0x00000b28       0x18 build/TEST/production/_ext/1509311806/int.o
 .debug_ranges  0x00000b40       0x58 build/TEST/production/_ext/1255152928/nvm.o
 .debug_ranges  0x00000b98       0x20 build/TEST/production/_ext/1509304807/pwm.o
 .debug_ranges  0x00000bb8       0x18 build/TEST/production/_ext/353641468/refclk.o
 .debug_ranges  0x00000bd0       0x70 build/TEST/production/_ext/1509302145/spi.o
 .debug_ranges  0x00000c40       0x70 build/TEST/production/_ext/401144697/systmr.o
 .debug_ranges  0x00000cb0       0x98 build/TEST/production/_ext/1261517080/usart.o
 .debug_ranges  0x00000d48       0x18 build/TEST/production/_ext/1509298662/wdt.o
 .debug_ranges  0x00000d60       0x50 build/TEST/production/_ext/210424401/rd_buffer.o
 .debug_ranges  0x00000db0       0x68 build/TEST/production/_ext/210424401/parser.o
 .debug_ranges  0x00000e18       0xb8 build/TEST/production/_ext/210424401/string_utils.o
 .debug_ranges  0x00000ed0       0x58 build/TEST/production/_ext/783894060/planner.o
 .debug_ranges  0x00000f28       0x10 build/TEST/production/_ext/73441385/system_exceptions.o
 .debug_ranges  0x00000f38       0x10 build/TEST/production/_ext/73441385/system_init.o
 .debug_ranges  0x00000f48       0x10 build/TEST/production/_ext/73441385/system_dbg.o
 .debug_ranges  0x00000f58       0x38 build/TEST/production/_ext/73441385/system_time.o
 .debug_ranges  0x00000f90       0x90 build/TEST/production/_ext/73441385/system_comm.o
 .debug_ranges  0x00001020       0x28 build/TEST/production/_ext/73441385/system_error.o
 .debug_ranges  0x00001048       0x10 build/TEST/production/_ext/73441385/crc.o
 .debug_ranges  0x00001058       0x18 build/TEST/production/_ext/1360937237/main.o
 .debug_ranges  0x00001070       0x10 c:/program files/microchip/xc32/v2.50/bin/bin/../../lib/gcc/pic32mx/4.8.3/../../../../pic32mx/lib/fpu64\libpic32.a(default-bootstrap-exception-handler.o)
 .debug_ranges  0x00001080       0x10 c:/program files/microchip/xc32/v2.50/bin/bin/../../lib/gcc/pic32mx/4.8.3/../../../../pic32mx/lib/fpu64\libpic32.a(default-on-reset.o)
 .debug_ranges  0x00001090       0x10 c:/program files/microchip/xc32/v2.50/bin/bin/../../lib/gcc/pic32mx/4.8.3/../../../../pic32mx/lib/fpu64\libpic32.a(default-on-bootstrap.o)
 .debug_ranges  0x000010a0       0x10 c:/program files/microchip/xc32/v2.50/bin/bin/../../lib/gcc/pic32mx/4.8.3/../../../../pic32mx/lib/fpu64\libpic32.a(defaultinterrupt.o)
 .debug_ranges  0x000010b0       0x10 c:/program files/microchip/xc32/v2.50/bin/bin/../../lib/gcc/pic32mx/4.8.3/../../../../pic32mx/lib/fpu64\libpic32.a(default-cache-err-exception-handler.o)
 .debug_ranges  0x000010c0       0x10 c:/program files/microchip/xc32/v2.50/bin/bin/../../lib/gcc/pic32mx/4.8.3/../../../../pic32mx/lib/fpu64\libpic32.a(default-simple-tlb-refill-exception-handler.o)
 .debug_ranges  0x000010d0       0x10 c:/program files/microchip/xc32/v2.50/bin/bin/../../lib/gcc/pic32mx/4.8.3/../../../../pic32mx/lib/fpu64\libmfd.a(s_modf.o)
 .debug_ranges  0x000010e0       0x10 c:/program files/microchip/xc32/v2.50/bin/bin/../../lib/gcc/pic32mx/4.8.3/../../../../pic32mx/lib/fpu64\libmfd.a(strtod.o)
 .debug_ranges  0x000010f0       0x10 c:/program files/microchip/xc32/v2.50/bin/bin/../../lib/gcc/pic32mx/4.8.3/../../../../pic32mx/lib/fpu64\libmfd.a(strtof.o)
 .debug_ranges  0x00001100       0x78 c:/program files/microchip/xc32/v2.50/bin/bin/../../lib/gcc/pic32mx/4.8.3/fpu64\libgcc.a(_divdi3.o)
 .debug_ranges  0x00001178       0x98 c:/program files/microchip/xc32/v2.50/bin/bin/../../lib/gcc/pic32mx/4.8.3/fpu64\libgcc.a(_udivdi3.o)
 .debug_ranges  0x00001210       0xd8 c:/program files/microchip/xc32/v2.50/bin/bin/../../lib/gcc/pic32mx/4.8.3/fpu64\libgcc.a(_umoddi3.o)
 .debug_ranges  0x000012e8       0x30 c:/program files/microchip/xc32/v2.50/bin/bin/../../lib/gcc/pic32mx/4.8.3/../../../../pic32mx/lib/fpu64\libpic32.a(sbrk.o)
 .debug_ranges  0x00001318       0x10 c:/program files/microchip/xc32/v2.50/bin/bin/../../lib/gcc/pic32mx/4.8.3/../../../../pic32mx/lib/fpu64\libpic32.a(_exit.o)
 .debug_ranges  0x00001328       0x10 c:/program files/microchip/xc32/v2.50/bin/bin/../../lib/gcc/pic32mx/4.8.3/../../../../pic32mx/lib/fpu64\libpic32.a(isatty.o)
 .debug_ranges  0x00001338       0x10 c:/program files/microchip/xc32/v2.50/bin/bin/../../lib/gcc/pic32mx/4.8.3/../../../../pic32mx/lib/fpu64\libpic32.a(_mon_getc.o)
 .debug_ranges  0x00001348       0x10 c:/program files/microchip/xc32/v2.50/bin/bin/../../lib/gcc/pic32mx/4.8.3/../../../../pic32mx/lib/fpu64\libpic32.a(_mon_write.o)

.gnu.attributes
                0x00000000       0x10
 *(.gnu.attributes)
 .gnu.attributes
                0x00000000       0x10 build/TEST/production/_ext/744274812/chrono.o
 .gnu.attributes
                0x00000010       0x10 build/TEST/production/_ext/816358189/ad5641.o
 .gnu.attributes
                0x00000020       0x10 build/TEST/production/_ext/2070436302/dio.o
 .gnu.attributes
                0x00000030       0x10 build/TEST/production/_ext/2070436302/genclk.o
 .gnu.attributes
                0x00000040       0x10 build/TEST/production/_ext/2070436302/relay.o
 .gnu.attributes
                0x00000050       0x10 build/TEST/production/_ext/2070436302/unisequencer.o
 .gnu.attributes
                0x00000060       0x10 build/TEST/production/_ext/2070436302/mod_pwm.o
 .gnu.attributes
                0x00000070       0x10 build/TEST/production/_ext/2070436302/mod_spi.o
 .gnu.attributes
                0x00000080       0x10 build/TEST/production/_ext/2070436302/mod_swspi.o
 .gnu.attributes
                0x00000090       0x10 build/TEST/production/_ext/2070436302/mod_i2c.o
 .gnu.attributes
                0x000000a0       0x10 build/TEST/production/_ext/2070436302/aout.o
 .gnu.attributes
                0x000000b0       0x10 build/TEST/production/_ext/2070436302/ain.o
 .gnu.attributes
                0x000000c0       0x10 build/TEST/production/_ext/2070436302/scanchain.o
 .gnu.attributes
                0x000000d0       0x10 build/TEST/production/_ext/2070436302/intadc.o
 .gnu.attributes
                0x000000e0       0x10 build/TEST/production/_ext/2070436302/mod_refclk.o
 .gnu.attributes
                0x000000f0       0x10 build/TEST/production/_ext/2070436302/cap.o
 .gnu.attributes
                0x00000100       0x10 build/TEST/production/_ext/801483606/app.o
 .gnu.attributes
                0x00000110       0x10 build/TEST/production/_ext/801483606/on_parameter_found.o
 .gnu.attributes
                0x00000120       0x10 build/TEST/production/_ext/1537666708/board.o
 .gnu.attributes
                0x00000130       0x10 build/TEST/production/_ext/1509319821/adc.o
 .gnu.attributes
                0x00000140       0x10 build/TEST/production/_ext/1509317981/can.o
 .gnu.attributes
                0x00000150       0x10 build/TEST/production/_ext/455916380/gpio.o
 .gnu.attributes
                0x00000160       0x10 build/TEST/production/_ext/1509311806/int.o
 .gnu.attributes
                0x00000170       0x10 build/TEST/production/_ext/1255152928/nvm.o
 .gnu.attributes
                0x00000180       0x10 build/TEST/production/_ext/1509304807/pwm.o
 .gnu.attributes
                0x00000190       0x10 build/TEST/production/_ext/353641468/refclk.o
 .gnu.attributes
                0x000001a0       0x10 build/TEST/production/_ext/1509302145/spi.o
 .gnu.attributes
                0x000001b0       0x10 build/TEST/production/_ext/1509302145/swspi.o
 .gnu.attributes
                0x000001c0       0x10 build/TEST/production/_ext/401144697/systmr.o
 .gnu.attributes
                0x000001d0       0x10 build/TEST/production/_ext/1261517080/usart.o
 .gnu.attributes
                0x000001e0       0x10 build/TEST/production/_ext/1509298662/wdt.o
 .gnu.attributes
                0x000001f0       0x10 build/TEST/production/_ext/210424401/rd_buffer.o
 .gnu.attributes
                0x00000200       0x10 build/TEST/production/_ext/210424401/parser.o
 .gnu.attributes
                0x00000210       0x10 build/TEST/production/_ext/210424401/string_utils.o
 .gnu.attributes
                0x00000220       0x10 build/TEST/production/_ext/783894060/planner.o
 .gnu.attributes
                0x00000230       0x10 build/TEST/production/_ext/73441385/system_exceptions.o
 .gnu.attributes
                0x00000240       0x10 build/TEST/production/_ext/73441385/system_init.o
 .gnu.attributes
                0x00000250       0x10 build/TEST/production/_ext/73441385/system_dbg.o
 .gnu.attributes
                0x00000260       0x10 build/TEST/production/_ext/73441385/system_time.o
 .gnu.attributes
                0x00000270       0x10 build/TEST/production/_ext/73441385/system_config.o
 .gnu.attributes
                0x00000280       0x10 build/TEST/production/_ext/73441385/system_comm.o
 .gnu.attributes
                0x00000290       0x10 build/TEST/production/_ext/73441385/system_error.o
 .gnu.attributes
                0x000002a0       0x10 build/TEST/production/_ext/73441385/crc.o
 .gnu.attributes
                0x000002b0       0x10 build/TEST/production/_ext/1360937237/main.o
 .gnu.attributes
                0x000002c0       0x10 c:/program files/microchip/xc32/v2.50/bin/bin/../../lib/gcc/pic32mx/4.8.3/../../../../pic32mx/lib/fpu64\libpic32.a(default-bootstrap-exception-handler.o)
 .gnu.attributes
                0x000002d0       0x10 c:/program files/microchip/xc32/v2.50/bin/bin/../../lib/gcc/pic32mx/4.8.3/../../../../pic32mx/lib/fpu64\libpic32.a(default-on-reset.o)
 .gnu.attributes
                0x000002e0       0x10 c:/program files/microchip/xc32/v2.50/bin/bin/../../lib/gcc/pic32mx/4.8.3/../../../../pic32mx/lib/fpu64\libpic32.a(default-on-bootstrap.o)
 .gnu.attributes
                0x000002f0       0x10 c:/program files/microchip/xc32/v2.50/bin/bin/../../lib/gcc/pic32mx/4.8.3/../../../../pic32mx/lib/fpu64\libpic32.a(defaultinterrupt.o)
 .gnu.attributes
                0x00000300       0x10 c:/program files/microchip/xc32/v2.50/bin/bin/../../lib/gcc/pic32mx/4.8.3/../../../../pic32mx/lib/fpu64\libpic32.a(default-cache-err-exception-handler.o)
 .gnu.attributes
                0x00000310       0x10 c:/program files/microchip/xc32/v2.50/bin/bin/../../lib/gcc/pic32mx/4.8.3/../../../../pic32mx/lib/fpu64\libpic32.a(default-simple-tlb-refill-exception-handler.o)
 .gnu.attributes
                0x00000320       0x10 c:/program files/microchip/xc32/v2.50/bin/bin/../../lib/gcc/pic32mx/4.8.3/../../../../pic32mx/lib/fpu64\liblega-c.a(strtol.o)
 .gnu.attributes
                0x00000330       0x10 c:/program files/microchip/xc32/v2.50/bin/bin/../../lib/gcc/pic32mx/4.8.3/../../../../pic32mx/lib/fpu64\liblega-c.a(fputc.o)
 .gnu.attributes
                0x00000340       0x10 c:/program files/microchip/xc32/v2.50/bin/bin/../../lib/gcc/pic32mx/4.8.3/../../../../pic32mx/lib/fpu64\liblega-c.a(fputs.o)
 .gnu.attributes
                0x00000350       0x10 c:/program files/microchip/xc32/v2.50/bin/bin/../../lib/gcc/pic32mx/4.8.3/../../../../pic32mx/lib/fpu64\liblega-c.a(printf_cdnopsuxX.eo)
 .gnu.attributes
                0x00000360       0x10 c:/program files/microchip/xc32/v2.50/bin/bin/../../lib/gcc/pic32mx/4.8.3/../../../../pic32mx/lib/fpu64\liblega-c.a(printf.o)
 .gnu.attributes
                0x00000370       0x10 c:/program files/microchip/xc32/v2.50/bin/bin/../../lib/gcc/pic32mx/4.8.3/../../../../pic32mx/lib/fpu64\liblega-c.a(sprintf_cdnopsuxX.eo)
 .gnu.attributes
                0x00000380       0x10 c:/program files/microchip/xc32/v2.50/bin/bin/../../lib/gcc/pic32mx/4.8.3/../../../../pic32mx/lib/fpu64\liblega-c.a(sscanf_cdnopuxX.eo)
 .gnu.attributes
                0x00000390       0x10 c:/program files/microchip/xc32/v2.50/bin/bin/../../lib/gcc/pic32mx/4.8.3/../../../../pic32mx/lib/fpu64\liblega-c.a(ctype.o)
 .gnu.attributes
                0x000003a0       0x10 c:/program files/microchip/xc32/v2.50/bin/bin/../../lib/gcc/pic32mx/4.8.3/../../../../pic32mx/lib/fpu64\liblega-c.a(errno.o)
 .gnu.attributes
                0x000003b0       0x10 c:/program files/microchip/xc32/v2.50/bin/bin/../../lib/gcc/pic32mx/4.8.3/../../../../pic32mx/lib/fpu64\liblega-c.a(_doprnt_cdnopsuxX.eo)
 .gnu.attributes
                0x000003c0       0x10 c:/program files/microchip/xc32/v2.50/bin/bin/../../lib/gcc/pic32mx/4.8.3/../../../../pic32mx/lib/fpu64\liblega-c.a(_doprnt.o)
 .gnu.attributes
                0x000003d0       0x10 c:/program files/microchip/xc32/v2.50/bin/bin/../../lib/gcc/pic32mx/4.8.3/../../../../pic32mx/lib/fpu64\liblega-c.a(_iobdata.o)
 .gnu.attributes
                0x000003e0       0x10 c:/program files/microchip/xc32/v2.50/bin/bin/../../lib/gcc/pic32mx/4.8.3/../../../../pic32mx/lib/fpu64\liblega-c.a(_iobfuncs.o)
 .gnu.attributes
                0x000003f0       0x10 c:/program files/microchip/xc32/v2.50/bin/bin/../../lib/gcc/pic32mx/4.8.3/../../../../pic32mx/lib/fpu64\liblega-c.a(_iobstring.o)
 .gnu.attributes
                0x00000400       0x10 c:/program files/microchip/xc32/v2.50/bin/bin/../../lib/gcc/pic32mx/4.8.3/../../../../pic32mx/lib/fpu64\liblega-c.a(_doscan.o)
 .gnu.attributes
                0x00000410       0x10 c:/program files/microchip/xc32/v2.50/bin/bin/../../lib/gcc/pic32mx/4.8.3/../../../../pic32mx/lib/fpu64\liblega-c.a(stubs.o)
 .gnu.attributes
                0x00000420       0x10 c:/program files/microchip/xc32/v2.50/bin/bin/../../lib/gcc/pic32mx/4.8.3/../../../../pic32mx/lib/fpu64\liblega-c.a(strchr.o)
 .gnu.attributes
                0x00000430       0x10 c:/program files/microchip/xc32/v2.50/bin/bin/../../lib/gcc/pic32mx/4.8.3/../../../../pic32mx/lib/fpu64\liblega-c.a(memset.o)
 .gnu.attributes
                0x00000440       0x10 c:/program files/microchip/xc32/v2.50/bin/bin/../../lib/gcc/pic32mx/4.8.3/../../../../pic32mx/lib/fpu64\liblega-c.a(malloc.o)
 .gnu.attributes
                0x00000450       0x10 c:/program files/microchip/xc32/v2.50/bin/bin/../../lib/gcc/pic32mx/4.8.3/../../../../pic32mx/lib/fpu64\liblega-c.a(malloc_realloc.o)
 .gnu.attributes
                0x00000460       0x10 c:/program files/microchip/xc32/v2.50/bin/bin/../../lib/gcc/pic32mx/4.8.3/../../../../pic32mx/lib/fpu64\liblega-c.a(strtoul.o)
 .gnu.attributes
                0x00000470       0x10 c:/program files/microchip/xc32/v2.50/bin/bin/../../lib/gcc/pic32mx/4.8.3/../../../../pic32mx/lib/fpu64\liblega-c.a(strtoll.o)
 .gnu.attributes
                0x00000480       0x10 c:/program files/microchip/xc32/v2.50/bin/bin/../../lib/gcc/pic32mx/4.8.3/../../../../pic32mx/lib/fpu64\liblega-c.a(strtoull.o)
 .gnu.attributes
                0x00000490       0x10 c:/program files/microchip/xc32/v2.50/bin/bin/../../lib/gcc/pic32mx/4.8.3/../../../../pic32mx/lib/fpu64\liblega-c.a(fullexit.o)
 .gnu.attributes
                0x000004a0       0x10 c:/program files/microchip/xc32/v2.50/bin/bin/../../lib/gcc/pic32mx/4.8.3/../../../../pic32mx/lib/fpu64\liblega-c.a(fgetc.o)
 .gnu.attributes
                0x000004b0       0x10 c:/program files/microchip/xc32/v2.50/bin/bin/../../lib/gcc/pic32mx/4.8.3/../../../../pic32mx/lib/fpu64\liblega-c.a(ungetc.o)
 .gnu.attributes
                0x000004c0       0x10 c:/program files/microchip/xc32/v2.50/bin/bin/../../lib/gcc/pic32mx/4.8.3/../../../../pic32mx/lib/fpu64\liblega-c.a(memmove.o)
 .gnu.attributes
                0x000004d0       0x10 c:/program files/microchip/xc32/v2.50/bin/bin/../../lib/gcc/pic32mx/4.8.3/../../../../pic32mx/lib/fpu64\liblega-c.a(memcpy.o)
 .gnu.attributes
                0x000004e0       0x10 c:/program files/microchip/xc32/v2.50/bin/bin/../../lib/gcc/pic32mx/4.8.3/../../../../pic32mx/lib/fpu64\liblega-c.a(_ioinit.o)
 .gnu.attributes
                0x000004f0       0x10 c:/program files/microchip/xc32/v2.50/bin/bin/../../lib/gcc/pic32mx/4.8.3/../../../../pic32mx/lib/fpu64\liblega-c.a(_cleanup.o)
 .gnu.attributes
                0x00000500       0x10 c:/program files/microchip/xc32/v2.50/bin/bin/../../lib/gcc/pic32mx/4.8.3/../../../../pic32mx/lib/fpu64\liblega-c.a(_bufproc.o)
 .gnu.attributes
                0x00000510       0x10 c:/program files/microchip/xc32/v2.50/bin/bin/../../lib/gcc/pic32mx/4.8.3/../../../../pic32mx/lib/fpu64\libmfd.a(s_modf.o)
 .gnu.attributes
                0x00000520       0x10 c:/program files/microchip/xc32/v2.50/bin/bin/../../lib/gcc/pic32mx/4.8.3/../../../../pic32mx/lib/fpu64\libmfd.a(strtod.o)
 .gnu.attributes
                0x00000530       0x10 c:/program files/microchip/xc32/v2.50/bin/bin/../../lib/gcc/pic32mx/4.8.3/../../../../pic32mx/lib/fpu64\libmfd.a(strtof.o)
 .gnu.attributes
                0x00000540       0x10 c:/program files/microchip/xc32/v2.50/bin/bin/../../lib/gcc/pic32mx/4.8.3/fpu64\libgcc.a(_divdi3.o)
 .gnu.attributes
                0x00000550       0x10 c:/program files/microchip/xc32/v2.50/bin/bin/../../lib/gcc/pic32mx/4.8.3/fpu64\libgcc.a(_udivdi3.o)
 .gnu.attributes
                0x00000560       0x10 c:/program files/microchip/xc32/v2.50/bin/bin/../../lib/gcc/pic32mx/4.8.3/fpu64\libgcc.a(_umoddi3.o)
 .gnu.attributes
                0x00000570       0x10 c:/program files/microchip/xc32/v2.50/bin/bin/../../lib/gcc/pic32mx/4.8.3/../../../../pic32mx/lib/fpu64\libpic32.a(sbrk.o)
 .gnu.attributes
                0x00000580       0x10 c:/program files/microchip/xc32/v2.50/bin/bin/../../lib/gcc/pic32mx/4.8.3/../../../../pic32mx/lib/fpu64\libpic32.a(_exit.o)
 .gnu.attributes
                0x00000590       0x10 c:/program files/microchip/xc32/v2.50/bin/bin/../../lib/gcc/pic32mx/4.8.3/../../../../pic32mx/lib/fpu64\libpic32.a(isatty.o)
 .gnu.attributes
                0x000005a0       0x10 c:/program files/microchip/xc32/v2.50/bin/bin/../../lib/gcc/pic32mx/4.8.3/../../../../pic32mx/lib/fpu64\libpic32.a(_mon_getc.o)
 .gnu.attributes
                0x000005b0       0x10 c:/program files/microchip/xc32/v2.50/bin/bin/../../lib/gcc/pic32mx/4.8.3/../../../../pic32mx/lib/fpu64\libpic32.a(_mon_write.o)
 .gnu.attributes
                0x000005c0       0x10 c:/program files/microchip/xc32/v2.50/bin/bin/../../lib/gcc/pic32mx/4.8.3/../../../../pic32mx/lib/fpu64\libpic32.a(xc32_uart.o)
                0x9d000000                PROVIDE (__pic32_init_cache_program_base_addr, 0x9d000000)
                0x80000000                PROVIDE (__pic32_init_cache_data_base_addr, 0x80000000)
                0xd0000000                PROVIDE (__pic32_init_sqi_kseg2_virtual_base_addr, 0xd0000000)
                0x30000000                PROVIDE (__pic32_init_sqi_kseg2_physical_base_addr, 0x30000000)
                0x0000001f                PROVIDE (__pic32_init_sqi_kseg2_entrylo0_bitset, 0x1f)
                0xd0000000                __pic32_tlb_0_entryhi = __pic32_init_sqi_kseg2_virtual_base_addr
                0x00c0001f                __pic32_tlb_0_entrylo0 = ((__pic32_init_sqi_kseg2_physical_base_addr >> 0x6) | __pic32_init_sqi_kseg2_entrylo0_bitset)
                0x00c8001f                __pic32_tlb_0_entrylo1 = (__pic32_tlb_0_entrylo0 | 0x80000)
                0xf0000000                PROVIDE (__pic32_init_sqi_kseg3_virtual_base_addr, 0xf0000000)
                0x30000000                PROVIDE (__pic32_init_sqi_kseg3_physical_base_addr, 0x30000000)
                0x00000017                PROVIDE (__pic32_init_sqi_kseg3_entrylo0_bitset, 0x17)
                0xf0000000                __pic32_tlb_1_entryhi = __pic32_init_sqi_kseg3_virtual_base_addr
                0x00c00017                __pic32_tlb_1_entrylo0 = ((__pic32_init_sqi_kseg3_physical_base_addr >> 0x6) | __pic32_init_sqi_kseg3_entrylo0_bitset)
                0x00c80017                __pic32_tlb_1_entrylo1 = (__pic32_tlb_1_entrylo0 | 0x80000)
                0xc0000000                PROVIDE (__pic32_init_ebi_kseg2_virtual_base_addr, 0xc0000000)
                0x20000000                PROVIDE (__pic32_init_ebi_kseg2_physical_base_addr, 0x20000000)
                0x0000001f                PROVIDE (__pic32_init_ebi_kseg2_entrylo0_bitset, 0x1f)
                0xc0000000                __pic32_tlb_2_entryhi = __pic32_init_ebi_kseg2_virtual_base_addr
                0x0080001f                __pic32_tlb_2_entrylo0 = ((__pic32_init_ebi_kseg2_physical_base_addr >> 0x6) | __pic32_init_ebi_kseg2_entrylo0_bitset)
                0x0088001f                __pic32_tlb_2_entrylo1 = (__pic32_tlb_2_entrylo0 | 0x80000)
                0xe0000000                PROVIDE (__pic32_init_ebi_kseg3_virtual_base_addr, 0xe0000000)
                0x20000000                PROVIDE (__pic32_init_ebi_kseg3_physical_base_addr, 0x20000000)
                0x00000017                PROVIDE (__pic32_init_ebi_kseg3_entrylo0_bitset, 0x17)
                0xe0000000                __pic32_tlb_3_entryhi = __pic32_init_ebi_kseg3_virtual_base_addr
                0x00800017                __pic32_tlb_3_entrylo0 = ((__pic32_init_ebi_kseg3_physical_base_addr >> 0x6) | __pic32_init_ebi_kseg3_entrylo0_bitset)
                0x00880017                __pic32_tlb_3_entrylo1 = (__pic32_tlb_3_entrylo0 | 0x80000)

.tlb_init_values
                0x9d000670       0x30
                0x9d000670                . = ALIGN (0x4)
                0x9d000670                __pic32_tlb_init_values_begin = ABSOLUTE (.)
                0x9d000670        0x4 LONG 0xd0000000 __pic32_tlb_0_entryhi
                0x9d000674        0x4 LONG 0xc0001f __pic32_tlb_0_entrylo0
                0x9d000678        0x4 LONG 0xc8001f __pic32_tlb_0_entrylo1
                0x9d00067c        0x4 LONG 0xf0000000 __pic32_tlb_1_entryhi
                0x9d000680        0x4 LONG 0xc00017 __pic32_tlb_1_entrylo0
                0x9d000684        0x4 LONG 0xc80017 __pic32_tlb_1_entrylo1
                0x9d000688        0x4 LONG 0xc0000000 __pic32_tlb_2_entryhi
                0x9d00068c        0x4 LONG 0x80001f __pic32_tlb_2_entrylo0
                0x9d000690        0x4 LONG 0x88001f __pic32_tlb_2_entrylo1
                0x9d000694        0x4 LONG 0xe0000000 __pic32_tlb_3_entryhi
                0x9d000698        0x4 LONG 0x800017 __pic32_tlb_3_entrylo0
                0x9d00069c        0x4 LONG 0x880017 __pic32_tlb_3_entrylo1
                0x9d0006a0                __pic32_tlb_init_values_end = ABSOLUTE (.)
                0x00000004                __pic32_tlb_init_values_count = 0x4
                0x00000000                _min_heap_size = 0x0
LOAD C:\Users\fg67bz\AppData\Local\Temp\ccOypprZ.o
LOAD C:\Users\fg67bz\AppData\Local\Temp\ccYcj41W.o
LOAD C:\Users\fg67bz\AppData\Local\Temp\cctZhIA8.o
LOAD c:/program files/microchip/xc32/v2.50/bin/bin/../../lib/gcc/pic32mx/4.8.3/../../../../pic32mx/lib/./proc/32MZ1024EFH100\default_isr_vectors.o
LOAD c:/program files/microchip/xc32/v2.50/bin/bin/../../lib/gcc/pic32mx/4.8.3/../../../../pic32mx/lib/fpu64\pic32_software_reset.o
LOAD c:/program files/microchip/xc32/v2.50/bin/bin/../../lib/gcc/pic32mx/4.8.3/fpu64\libgcc.a
START GROUP
LOAD c:/program files/microchip/xc32/v2.50/bin/bin/../../lib/gcc/pic32mx/4.8.3/../../../../pic32mx/lib/fpu64\libpic32.a
LOAD c:/program files/microchip/xc32/v2.50/bin/bin/../../lib/gcc/pic32mx/4.8.3/../../../../pic32mx/lib/fpu64\libdebug.a
LOAD c:/program files/microchip/xc32/v2.50/bin/bin/../../lib/gcc/pic32mx/4.8.3/../../../../pic32mx/lib/fpu64\libpic32.a
LOAD c:/program files/microchip/xc32/v2.50/bin/bin/../../lib/gcc/pic32mx/4.8.3/../../../../pic32mx/lib/fpu64\liblega-c.a
LOAD c:/program files/microchip/xc32/v2.50/bin/bin/../../lib/gcc/pic32mx/4.8.3/../../../../pic32mx/lib/fpu64\libmfd.a
LOAD c:/program files/microchip/xc32/v2.50/bin/bin/../../lib/gcc/pic32mx/4.8.3/../../../../pic32mx/lib/fpu64\libm.a
LOAD c:/program files/microchip/xc32/v2.50/bin/bin/../../lib/gcc/pic32mx/4.8.3/../../../../pic32mx/lib/fpu64\libe.a
LOAD c:/program files/microchip/xc32/v2.50/bin/bin/../../lib/gcc/pic32mx/4.8.3/../../../../pic32mx/lib/fpu64\libdspr2.a
LOAD c:/program files/microchip/xc32/v2.50/bin/bin/../../lib/gcc/pic32mx/4.8.3/../../../../pic32mx/lib/fpu64\libdsp.a
LOAD c:/program files/microchip/xc32/v2.50/bin/bin/../../lib/gcc/pic32mx/4.8.3/fpu64\libgcc.a
LOAD c:/program files/microchip/xc32/v2.50/bin/bin/../../lib/gcc/pic32mx/4.8.3/../../../../pic32mx/lib/fpu64\libpic32.a
END GROUP
LOAD c:/program files/microchip/xc32/v2.50/bin/bin/../../lib/gcc/pic32mx/4.8.3/fpu64\libgcc.a
OUTPUT(dist/TEST/production/app.X.production.elf elf32-tradlittlemips)
LOAD stack
LOAD data_init

.reginfo        0x00000000       0x18
 .reginfo       0x00000000       0x18 c:/program files/microchip/xc32/v2.50/bin/bin/../../lib/gcc/pic32mx/4.8.3/../../../../pic32mx/lib/fpu64\debug-exception-return.o

.stack          0x8007f128       0x10
 .stack         0x8007f128       0x10 stack

.__vector_offset_BF810540_data
                0xbf810540      0x178
 .__vector_offset_BF810540_data
                0xbf810540      0x178 c:/program files/microchip/xc32/v2.50/bin/bin/../../lib/gcc/pic32mx/4.8.3/../../../../pic32mx/lib/./proc/32MZ1024EFH100\vector_offset_init.o

.__vector_offset_BF810740_data
                0xbf810740       0xfc
 .__vector_offset_BF810740_data
                0xbf810740       0xfc c:/program files/microchip/xc32/v2.50/bin/bin/../../lib/gcc/pic32mx/4.8.3/../../../../pic32mx/lib/./proc/32MZ1024EFH100\vector_offset_init.o

.__vector_offset_BF8106F4_data
                0xbf8106f4       0x40
 .__vector_offset_BF8106F4_data
                0xbf8106f4       0x40 c:/program files/microchip/xc32/v2.50/bin/bin/../../lib/gcc/pic32mx/4.8.3/../../../../pic32mx/lib/./proc/32MZ1024EFH100\vector_offset_init.o

.__vector_offset_BF810874_data
                0xbf810874       0x18
 .__vector_offset_BF810874_data
                0xbf810874       0x18 c:/program files/microchip/xc32/v2.50/bin/bin/../../lib/gcc/pic32mx/4.8.3/../../../../pic32mx/lib/./proc/32MZ1024EFH100\vector_offset_init.o

.__vector_offset_BF8106D8_data
                0xbf8106d8       0x14
 .__vector_offset_BF8106D8_data
                0xbf8106d8       0x14 c:/program files/microchip/xc32/v2.50/bin/bin/../../lib/gcc/pic32mx/4.8.3/../../../../pic32mx/lib/./proc/32MZ1024EFH100\vector_offset_init.o

.__vector_offset_BF810858_data
                0xbf810858       0x14
 .__vector_offset_BF810858_data
                0xbf810858       0x14 c:/program files/microchip/xc32/v2.50/bin/bin/../../lib/gcc/pic32mx/4.8.3/../../../../pic32mx/lib/./proc/32MZ1024EFH100\vector_offset_init.o

.__vector_offset_BF810840_data
                0xbf810840        0xc
 .__vector_offset_BF810840_data
                0xbf810840        0xc c:/program files/microchip/xc32/v2.50/bin/bin/../../lib/gcc/pic32mx/4.8.3/../../../../pic32mx/lib/./proc/32MZ1024EFH100\vector_offset_init.o

.__vector_offset_BF810850_data
                0xbf810850        0x4
 .__vector_offset_BF810850_data
                0xbf810850        0x4 c:/program files/microchip/xc32/v2.50/bin/bin/../../lib/gcc/pic32mx/4.8.3/../../../../pic32mx/lib/./proc/32MZ1024EFH100\vector_offset_init.o

.__vector_offset_BF810894_data
                0xbf810894        0x4
 .__vector_offset_BF810894_data
                0xbf810894        0x4 c:/program files/microchip/xc32/v2.50/bin/bin/../../lib/gcc/pic32mx/4.8.3/../../../../pic32mx/lib/./proc/32MZ1024EFH100\vector_offset_init.o

.bss            0x8007a314     0x1b78
 .bss           0x8007a314      0xfa0 build/TEST/production/_ext/2070436302/scanchain.o
 .bss           0x8007b2b4      0xbd8 build/TEST/production/_ext/73441385/system_comm.o

.bss            0x8007be8c     0x10a0
 .bss           0x8007be8c      0x8d0 build/TEST/production/_ext/2070436302/mod_swspi.o
 .bss           0x8007c75c      0x7d0 build/TEST/production/_ext/2070436302/mod_spi.o

.bss            0x8007cf2c      0x660
 .bss           0x8007cf2c      0x660 build/TEST/production/_ext/2070436302/unisequencer.o

.data           0x8007d58c      0x410
 .data          0x8007d58c      0x410 c:/program files/microchip/xc32/v2.50/bin/bin/../../lib/gcc/pic32mx/4.8.3/../../../../pic32mx/lib/fpu64\liblega-c.a(malloc.o)
                0x8007d58c                malloc_sbrk_base
                0x8007d590                malloc_trim_threshold
                0x8007d594                malloc_av_

.bss            0x8007d99c      0x7d0
 .bss           0x8007d99c      0x3e8 build/TEST/production/_ext/2070436302/genclk.o
 .bss           0x8007dd84      0x3e8 build/TEST/production/_ext/2070436302/intadc.o

.bss            0x8007e16c      0x7d0
 .bss           0x8007e16c      0x3e8 build/TEST/production/_ext/2070436302/mod_refclk.o
 .bss           0x8007e554      0x3e8 build/TEST/production/_ext/2070436302/cap.o

.bss            0x8007e93c      0x2f8
 .bss           0x8007e93c      0x2f8 build/TEST/production/_ext/73441385/system_error.o

.data           0x8007ec34      0x138
 .data          0x8007ec34      0x138 build/TEST/production/_ext/2070436302/mod_spi.o
                0x8007ec34                hwSpiConfig

.bss            0x8007ed6c       0xdc
 .bss           0x8007ed6c       0xdc build/TEST/production/_ext/2070436302/dio.o

.data           0x8007ee48       0xd4
 .data          0x8007ee48       0xd4 c:/program files/microchip/xc32/v2.50/bin/bin/../../lib/gcc/pic32mx/4.8.3/../../../../pic32mx/lib/fpu64\liblega-c.a(_iobdata.o)

.bss            0x8007ef1c       0xd8
 .bss           0x8007ef1c       0x88 c:/program files/microchip/xc32/v2.50/bin/bin/../../lib/gcc/pic32mx/4.8.3/../../../../pic32mx/lib/fpu64\liblega-c.a(_iobdata.o)
 .bss           0x8007efa4       0x50 build/TEST/production/_ext/783894060/planner.o

.bss            0x8007eff4       0x70
 .bss           0x8007eff4       0x3c build/TEST/production/_ext/801483606/app.o
 .bss           0x8007f030       0x34 build/TEST/production/_ext/210424401/parser.o

.bss            0x8007f064       0x34
 .bss           0x8007f064       0x34 c:/program files/microchip/xc32/v2.50/bin/bin/../../lib/gcc/pic32mx/4.8.3/../../../../pic32mx/lib/fpu64\liblega-c.a(malloc.o)
                0x8007f064                malloc_current_mallinfo
                0x8007f08c                malloc_max_total_mem
                0x8007f090                malloc_max_sbrked_mem
                0x8007f094                malloc_top_pad

.data           0x8007f098       0x28
 .data          0x8007f098       0x28 build/TEST/production/_ext/2070436302/aout.o
                0x8007f098                aout

.bss            0x8007f0c0       0x48
 .bss           0x8007f0c0       0x24 build/TEST/production/_ext/2070436302/mod_pwm.o
 .bss           0x8007f0e4       0x24 c:/program files/microchip/xc32/v2.50/bin/bin/../../lib/gcc/pic32mx/4.8.3/../../../../pic32mx/lib/fpu64\libpic32.a(sbrk.o)
                0x8007f100                _maxbrk
                0x8007f104                _minbrk

.text.on_parameter_found
                0x9d001258     0x10b0
 .text.on_parameter_found
                0x9d001258     0x10b0 build/TEST/production/_ext/801483606/on_parameter_found.o
                0x9d001258                on_parameter_found

.rodata         0x9d002308     0x1070
 .rodata        0x9d002308     0x1070 build/TEST/production/_ext/210424401/parser.o

.text._fconvert
                0x9d003378      0xc2c
 .text._fconvert
                0x9d003378      0xc2c c:/program files/microchip/xc32/v2.50/bin/bin/../../lib/gcc/pic32mx/4.8.3/../../../../pic32mx/lib/fpu64\liblega-c.a(_doprnt.o)

.text.do_scan   0x9d003fa4      0xc0c
 .text.do_scan  0x9d003fa4      0xc0c c:/program files/microchip/xc32/v2.50/bin/bin/../../lib/gcc/pic32mx/4.8.3/../../../../pic32mx/lib/fpu64\liblega-c.a(_doscan.o)
                0x9d003fa4                do_scan

.dinit          0x9d004bb0      0xbe0
 .dinit         0x9d004bb0      0xbe0 data_init

.text.function_swspics
                0x9d005790      0xbbc
 .text.function_swspics
                0x9d005790      0xbbc build/TEST/production/_ext/2070436302/mod_swspi.o
                0x9d005790                function_swspics

.text.do_print  0x9d00634c      0xae8
 .text.do_print
                0x9d00634c      0xae8 c:/program files/microchip/xc32/v2.50/bin/bin/../../lib/gcc/pic32mx/4.8.3/../../../../pic32mx/lib/fpu64\liblega-c.a(_doprnt.o)
                0x9d00634c                do_print

.text._do_print_cdnopsuxX
                0x9d006e34      0xa70
 .text._do_print_cdnopsuxX
                0x9d006e34      0xa70 c:/program files/microchip/xc32/v2.50/bin/bin/../../lib/gcc/pic32mx/4.8.3/../../../../pic32mx/lib/fpu64\liblega-c.a(_doprnt_cdnopsuxX.eo)
                0x9d006e34                _do_print_cdnopsuxX
                0x9d006e34                _do_print_cdnopuxX
                0x9d006e34                _do_print_0
                0x9d006e34                _do_print_s

.text.unisequencer_execute
                0x9d0078a4      0xa40
 .text.unisequencer_execute
                0x9d0078a4      0xa40 build/TEST/production/_ext/2070436302/unisequencer.o
                0x9d0078a4                unisequencer_execute

.rodata         0x9d0082e4     0x11e4
 .rodata        0x9d0082e4      0x984 build/TEST/production/_ext/2070436302/scanchain.o
 .rodata        0x9d008c68      0x860 build/TEST/production/_ext/2070436302/mod_swspi.o

.rodata         0x9d0094c8     0x106c
 .rodata        0x9d0094c8      0x83c build/TEST/production/_ext/2070436302/intadc.o
 .rodata        0x9d009d04      0x830 build/TEST/production/_ext/2070436302/genclk.o

.text.scanchain2_transfer
                0x9d00a534      0x80c
 .text.scanchain2_transfer
                0x9d00a534      0x80c build/TEST/production/_ext/2070436302/scanchain.o
                0x9d00a534                scanchain2_transfer

.text.malloc    0x9d00ad40      0x800
 .text.malloc   0x9d00ad40      0x800 c:/program files/microchip/xc32/v2.50/bin/bin/../../lib/gcc/pic32mx/4.8.3/../../../../pic32mx/lib/fpu64\liblega-c.a(malloc.o)
                0x9d00ad40                malloc

.text.pwm_set_duty
                0x9d00b540      0x724
 .text.pwm_set_duty
                0x9d00b540      0x724 build/TEST/production/_ext/1509304807/pwm.o
                0x9d00b540                pwm_set_duty

.text.gpio_enable
                0x9d00bc64      0x714
 .text.gpio_enable
                0x9d00bc64      0x714 build/TEST/production/_ext/455916380/gpio.o
                0x9d00bc64                gpio_enable

.text.scanchain3_transfer
                0x9d00c378      0x5ac
 .text.scanchain3_transfer
                0x9d00c378      0x5ac build/TEST/production/_ext/2070436302/scanchain.o
                0x9d00c378                scanchain3_transfer

.text.scanchan1_transfer
                0x9d00c924      0x588
 .text.scanchan1_transfer
                0x9d00c924      0x588 build/TEST/production/_ext/2070436302/scanchain.o
                0x9d00c924                scanchan1_transfer

.text.realloc   0x9d00ceac      0x584
 .text.realloc  0x9d00ceac      0x584 c:/program files/microchip/xc32/v2.50/bin/bin/../../lib/gcc/pic32mx/4.8.3/../../../../pic32mx/lib/fpu64\liblega-c.a(malloc_realloc.o)
                0x9d00ceac                realloc

.text.signal1   0x9d00d430      0x560
 .text.signal1  0x9d00d430      0x560 build/TEST/production/_ext/2070436302/unisequencer.o

.text           0x9d00d990      0x4b4
 .text          0x9d00d990      0x4b4 c:/program files/microchip/xc32/v2.50/bin/bin/../../lib/gcc/pic32mx/4.8.3/fpu64\libgcc.a(_divdi3.o)
                0x9d00d990                __divdi3

.text.function_swspi
                0x9d00de44      0x474
 .text.function_swspi
                0x9d00de44      0x474 build/TEST/production/_ext/2070436302/mod_swspi.o
                0x9d00de44                function_swspi

.text.mod_spi_transfer
                0x9d00e2b8      0x464
 .text.mod_spi_transfer
                0x9d00e2b8      0x464 build/TEST/production/_ext/2070436302/mod_spi.o
                0x9d00e2b8                mod_spi_transfer

.text           0x9d00e71c      0x8bc
 .text          0x9d00e71c      0x464 c:/program files/microchip/xc32/v2.50/bin/bin/../../lib/gcc/pic32mx/4.8.3/fpu64\libgcc.a(_umoddi3.o)
                0x9d00e71c                __umoddi3
 .text          0x9d00eb80      0x458 c:/program files/microchip/xc32/v2.50/bin/bin/../../lib/gcc/pic32mx/4.8.3/fpu64\libgcc.a(_udivdi3.o)
                0x9d00eb80                __udivdi3

.text.systmrB_enable
                0x9d00efd8      0x3f8
 .text.systmrB_enable
                0x9d00efd8      0x3f8 build/TEST/production/_ext/401144697/systmr.o
                0x9d00efd8                systmrB_enable

.text.intadc_read
                0x9d00f3d0      0x3f4
 .text.intadc_read
                0x9d00f3d0      0x3f4 build/TEST/production/_ext/2070436302/intadc.o
                0x9d00f3d0                intadc_read

.text.mod_spi_conf
                0x9d00f7c4      0x3f0
 .text.mod_spi_conf
                0x9d00f7c4      0x3f0 build/TEST/production/_ext/2070436302/mod_spi.o
                0x9d00f7c4                mod_spi_conf

.rodata         0x9d00fbb4      0x3b4
 .rodata        0x9d00fbb4      0x3b4 build/TEST/production/_ext/1537666708/board.o

.text.strtoll   0x9d00ff68      0x388
 .text.strtoll  0x9d00ff68      0x388 c:/program files/microchip/xc32/v2.50/bin/bin/../../lib/gcc/pic32mx/4.8.3/../../../../pic32mx/lib/fpu64\liblega-c.a(strtoll.o)
                0x9d00ff68                strtoll

.text.systmrB_restart
                0x9d0102f0      0x370
 .text.systmrB_restart
                0x9d0102f0      0x370 build/TEST/production/_ext/401144697/systmr.o
                0x9d0102f0                systmrB_restart

.text.adc_init  0x9d010660      0x354
 .text.adc_init
                0x9d010660      0x354 build/TEST/production/_ext/1509319821/adc.o
                0x9d010660                adc_init

.text.function_genclk
                0x9d0109b4      0x340
 .text.function_genclk
                0x9d0109b4      0x340 build/TEST/production/_ext/2070436302/genclk.o
                0x9d0109b4                function_genclk

.text.PLANNER_Run
                0x9d010cf4      0x334
 .text.PLANNER_Run
                0x9d010cf4      0x334 build/TEST/production/_ext/783894060/planner.o
                0x9d010cf4                PLANNER_Run

.text.CommunicationInterrupt
                0x9d011028      0x334
 .text.CommunicationInterrupt
                0x9d011028      0x334 build/TEST/production/_ext/73441385/system_comm.o
                0x9d011028                CommunicationInterrupt

.text.function_swspiconf
                0x9d01135c      0x320
 .text.function_swspiconf
                0x9d01135c      0x320 build/TEST/production/_ext/2070436302/mod_swspi.o
                0x9d01135c                function_swspiconf

.text.scanchain3_read
                0x9d01167c      0x320
 .text.scanchain3_read
                0x9d01167c      0x320 build/TEST/production/_ext/2070436302/scanchain.o
                0x9d01167c                scanchain3_read

.text.scanchain3_write
                0x9d01199c      0x320
 .text.scanchain3_write
                0x9d01199c      0x320 build/TEST/production/_ext/2070436302/scanchain.o
                0x9d01199c                scanchain3_write

.text.strtoull  0x9d011cbc      0x30c
 .text.strtoull
                0x9d011cbc      0x30c c:/program files/microchip/xc32/v2.50/bin/bin/../../lib/gcc/pic32mx/4.8.3/../../../../pic32mx/lib/fpu64\liblega-c.a(strtoull.o)
                0x9d011cbc                strtoull

.text.strtod    0x9d011fc8      0x2d8
 .text.strtod   0x9d011fc8      0x2d8 c:/program files/microchip/xc32/v2.50/bin/bin/../../lib/gcc/pic32mx/4.8.3/../../../../pic32mx/lib/fpu64\libmfd.a(strtod.o)
                0x9d011fc8                strtod

.text.parse_string
                0x9d0122a0      0x2cc
 .text.parse_string
                0x9d0122a0      0x2cc build/TEST/production/_ext/210424401/parser.o
                0x9d0122a0                parse_string

.text.pwm_init  0x9d01256c      0x2a8
 .text.pwm_init
                0x9d01256c      0x2a8 build/TEST/production/_ext/1509304807/pwm.o
                0x9d01256c                pwm_init

.text._strtostr
                0x9d012814      0x284
 .text._strtostr
                0x9d012814      0x284 c:/program files/microchip/xc32/v2.50/bin/bin/../../lib/gcc/pic32mx/4.8.3/../../../../pic32mx/lib/fpu64\liblega-c.a(_doscan.o)

.text.cap_trig  0x9d012a98      0x280
 .text.cap_trig
                0x9d012a98      0x280 build/TEST/production/_ext/2070436302/cap.o
                0x9d012a98                cap_trig

.text.strtoul   0x9d012d18      0x280
 .text.strtoul  0x9d012d18      0x280 c:/program files/microchip/xc32/v2.50/bin/bin/../../lib/gcc/pic32mx/4.8.3/../../../../pic32mx/lib/fpu64\liblega-c.a(strtoul.o)
                0x9d012d18                strtoul

.text.strtol    0x9d012f98      0x27c
 .text.strtol   0x9d012f98      0x27c c:/program files/microchip/xc32/v2.50/bin/bin/../../lib/gcc/pic32mx/4.8.3/../../../../pic32mx/lib/fpu64\liblega-c.a(strtol.o)
                0x9d012f98                strtol

.text.free      0x9d013214      0x27c
 .text.free     0x9d013214      0x27c c:/program files/microchip/xc32/v2.50/bin/bin/../../lib/gcc/pic32mx/4.8.3/../../../../pic32mx/lib/fpu64\liblega-c.a(malloc.o)
                0x9d013214                free

.text.relay_set
                0x9d013490      0x238
 .text.relay_set
                0x9d013490      0x238 build/TEST/production/_ext/2070436302/relay.o
                0x9d013490                relay_set

.text.scanchain_conf
                0x9d0136c8      0x200
 .text.scanchain_conf
                0x9d0136c8      0x200 build/TEST/production/_ext/2070436302/scanchain.o
                0x9d0136c8                scanchain_conf

.text.cap_conf  0x9d0138c8      0x200
 .text.cap_conf
                0x9d0138c8      0x200 build/TEST/production/_ext/2070436302/cap.o
                0x9d0138c8                cap_conf

.text.StrToUInt
                0x9d013ac8      0x1c4
 .text.StrToUInt
                0x9d013ac8      0x1c4 build/TEST/production/_ext/210424401/string_utils.o
                0x9d013ac8                StrToUInt

.text.systmrB_disable
                0x9d013c8c      0x1b0
 .text.systmrB_disable
                0x9d013c8c      0x1b0 build/TEST/production/_ext/401144697/systmr.o
                0x9d013c8c                systmrB_disable

.text.mod_refclk_conf
                0x9d013e3c      0x19c
 .text.mod_refclk_conf
                0x9d013e3c      0x19c build/TEST/production/_ext/2070436302/mod_refclk.o
                0x9d013e3c                mod_refclk_conf

.text._sbrk_init
                0x9d013fd8      0x194
 .text._sbrk_init
                0x9d013fd8      0x194 c:/program files/microchip/xc32/v2.50/bin/bin/../../lib/gcc/pic32mx/4.8.3/../../../../pic32mx/lib/fpu64\libpic32.a(sbrk.o)
                0x9d013fd8                _sbrk_init

.rodata         0x9d01416c      0x190
 .rodata        0x9d01416c      0x190 build/TEST/production/_ext/455916380/gpio.o

.text.unisequencer_conf
                0x9d0142fc      0x18c
 .text.unisequencer_conf
                0x9d0142fc      0x18c build/TEST/production/_ext/2070436302/unisequencer.o
                0x9d0142fc                unisequencer_conf

.text.mod_pwm_conf
                0x9d014488      0x18c
 .text.mod_pwm_conf
                0x9d014488      0x18c build/TEST/production/_ext/2070436302/mod_pwm.o
                0x9d014488                mod_pwm_conf

.text.gpio_reg  0x9d014614      0x18c
 .text.gpio_reg
                0x9d014614      0x18c build/TEST/production/_ext/455916380/gpio.o
                0x9d014614                gpio_reg

.text.uart_enable_rx_interrupt
                0x9d0147a0      0x170
 .text.uart_enable_rx_interrupt
                0x9d0147a0      0x170 build/TEST/production/_ext/1261517080/usart.o
                0x9d0147a0                uart_enable_rx_interrupt

.text.dio_set   0x9d014910      0x16c
 .text.dio_set  0x9d014910      0x16c build/TEST/production/_ext/2070436302/dio.o
                0x9d014910                dio_set

.text.aout_conf
                0x9d014a7c      0x168
 .text.aout_conf
                0x9d014a7c      0x168 build/TEST/production/_ext/2070436302/aout.o
                0x9d014a7c                aout_conf

.text           0x9d014be4      0x168
 .text          0x9d014be4      0x168 c:/program files/microchip/xc32/v2.50/bin/bin/../../lib/gcc/pic32mx/4.8.3/../../../../pic32mx/lib/fpu64\libpic32.a(strlen.o)
                0x9d014be4                strlen

.text.mod_pwm_set_freq
                0x9d014d4c      0x164
 .text.mod_pwm_set_freq
                0x9d014d4c      0x164 build/TEST/production/_ext/2070436302/mod_pwm.o
                0x9d014d4c                mod_pwm_set_freq

.text.SYSTEM_ReadUART
                0x9d014eb0      0x164
 .text.SYSTEM_ReadUART
                0x9d014eb0      0x164 build/TEST/production/_ext/73441385/system_comm.o
                0x9d014eb0                SYSTEM_ReadUART

.text.spi_transfer
                0x9d015014      0x158
 .text.spi_transfer
                0x9d015014      0x158 build/TEST/production/_ext/1509302145/spi.o
                0x9d015014                spi_transfer

.text.unisequencer_result
                0x9d01516c      0x154
 .text.unisequencer_result
                0x9d01516c      0x154 build/TEST/production/_ext/2070436302/unisequencer.o
                0x9d01516c                unisequencer_result

.text.systmrB_set_period
                0x9d0152c0      0x150
 .text.systmrB_set_period
                0x9d0152c0      0x150 build/TEST/production/_ext/401144697/systmr.o
                0x9d0152c0                systmrB_set_period

.text._outcnvrt
                0x9d015410      0x278
 .text._outcnvrt
                0x9d015410      0x13c c:/program files/microchip/xc32/v2.50/bin/bin/../../lib/gcc/pic32mx/4.8.3/../../../../pic32mx/lib/fpu64\liblega-c.a(_doprnt_cdnopsuxX.eo)
 .text._outcnvrt
                0x9d01554c      0x13c c:/program files/microchip/xc32/v2.50/bin/bin/../../lib/gcc/pic32mx/4.8.3/../../../../pic32mx/lib/fpu64\liblega-c.a(_doprnt.o)

.text.SYSTEM_Initialize
                0x9d015688      0x138
 .text.SYSTEM_Initialize
                0x9d015688      0x138 build/TEST/production/_ext/73441385/system_init.o
                0x9d015688                SYSTEM_Initialize

.text.ascii_to_byte
                0x9d0157c0      0x134
 .text.ascii_to_byte
                0x9d0157c0      0x134 build/TEST/production/_ext/210424401/string_utils.o
                0x9d0157c0                ascii_to_byte

.text.ungetc    0x9d0158f4      0x134
 .text.ungetc   0x9d0158f4      0x134 c:/program files/microchip/xc32/v2.50/bin/bin/../../lib/gcc/pic32mx/4.8.3/../../../../pic32mx/lib/fpu64\liblega-c.a(ungetc.o)
                0x9d0158f4                ungetc

.text.APP_function_run
                0x9d015a28      0x128
 .text.APP_function_run
                0x9d015a28      0x128 build/TEST/production/_ext/801483606/app.o
                0x9d015a28                APP_function_run

.text.gpio_set  0x9d015b50      0x128
 .text.gpio_set
                0x9d015b50      0x128 build/TEST/production/_ext/455916380/gpio.o
                0x9d015b50                gpio_set

.rodata         0x9d015c78      0x128
 .rodata        0x9d015c78      0x128 build/TEST/production/_ext/73441385/system_exceptions.o

.text.mod_pwm_enable
                0x9d015da0      0x124
 .text.mod_pwm_enable
                0x9d015da0      0x124 build/TEST/production/_ext/2070436302/mod_pwm.o
                0x9d015da0                mod_pwm_enable

.text           0x9d015ec4      0x120
 .text          0x9d015ec4      0x120 c:/program files/microchip/xc32/v2.50/bin/bin/../../lib/gcc/pic32mx/4.8.3/../../../../pic32mx/lib/fpu64\libpic32.a(strcmp.o)
                0x9d015ec4                strcmp

.text.pwm_enable
                0x9d015fe4      0x11c
 .text.pwm_enable
                0x9d015fe4      0x11c build/TEST/production/_ext/1509304807/pwm.o
                0x9d015fe4                pwm_enable

.text.systmrB_timeout
                0x9d016100      0x118
 .text.systmrB_timeout
                0x9d016100      0x118 build/TEST/production/_ext/401144697/systmr.o
                0x9d016100                systmrB_timeout

.text.rd_buffer_contains
                0x9d016218      0x114
 .text.rd_buffer_contains
                0x9d016218      0x114 build/TEST/production/_ext/210424401/rd_buffer.o
                0x9d016218                rd_buffer_contains

.text._send_byte
                0x9d01632c      0x110
 .text._send_byte
                0x9d01632c      0x110 build/TEST/production/_ext/2070436302/relay.o
                0x9d01632c                _send_byte

.text.rounded.isra.0
                0x9d01643c      0x110
 .text.rounded.isra.0
                0x9d01643c      0x110 c:/program files/microchip/xc32/v2.50/bin/bin/../../lib/gcc/pic32mx/4.8.3/../../../../pic32mx/lib/fpu64\liblega-c.a(_doprnt.o)

.text.putget.2778
                0x9d01654c      0x10c
 .text.putget.2778
                0x9d01654c      0x10c c:/program files/microchip/xc32/v2.50/bin/bin/../../lib/gcc/pic32mx/4.8.3/../../../../pic32mx/lib/fpu64\liblega-c.a(_doscan.o)

.text.PLANNER_Init
                0x9d016658      0x108
 .text.PLANNER_Init
                0x9d016658      0x108 build/TEST/production/_ext/783894060/planner.o
                0x9d016658                PLANNER_Init

.rodata         0x9d016760      0x104
 .rodata        0x9d016760      0x104 c:/program files/microchip/xc32/v2.50/bin/bin/../../lib/gcc/pic32mx/4.8.3/../../../../pic32mx/lib/fpu64\liblega-c.a(ctype.o)
                0x9d016760                _ctype

.text.malloc_trim
                0x9d016864      0x104
 .text.malloc_trim
                0x9d016864      0x104 c:/program files/microchip/xc32/v2.50/bin/bin/../../lib/gcc/pic32mx/4.8.3/../../../../pic32mx/lib/fpu64\liblega-c.a(malloc.o)
                0x9d016864                malloc_trim

.text._flsbuf_simple
                0x9d016968       0xfc
 .text._flsbuf_simple
                0x9d016968       0xfc c:/program files/microchip/xc32/v2.50/bin/bin/../../lib/gcc/pic32mx/4.8.3/../../../../pic32mx/lib/fpu64\liblega-c.a(_iobfuncs.o)
                0x9d016968                _flsbuf_simple

.text._modfx    0x9d016a64       0xfc
 .text._modfx   0x9d016a64       0xfc c:/program files/microchip/xc32/v2.50/bin/bin/../../lib/gcc/pic32mx/4.8.3/../../../../pic32mx/lib/fpu64\libmfd.a(s_modf.o)
                0x9d016a64                _modfx

.text.scanchain2_result
                0x9d016b60       0xf4
 .text.scanchain2_result
                0x9d016b60       0xf4 build/TEST/production/_ext/2070436302/scanchain.o
                0x9d016b60                scanchain2_result

.text.strchr    0x9d016c54       0xf4
 .text.strchr   0x9d016c54       0xf4 c:/program files/microchip/xc32/v2.50/bin/bin/../../lib/gcc/pic32mx/4.8.3/../../../../pic32mx/lib/fpu64\liblega-c.a(strchr.o)
                0x9d016c54                strchr

.text._mon_getc
                0x9d001010       0xf0
 .text._mon_getc
                0x9d001010       0xf0 c:/program files/microchip/xc32/v2.50/bin/bin/../../lib/gcc/pic32mx/4.8.3/../../../../pic32mx/lib/fpu64\libpic32.a(_mon_getc.o)
                0x9d001010                _mon_getc

.text.split_text
                0x9d016d48       0xec
 .text.split_text
                0x9d016d48       0xec build/TEST/production/_ext/210424401/parser.o
                0x9d016d48                split_text

.text.ad5641_write
                0x9d016e34       0xe4
 .text.ad5641_write
                0x9d016e34       0xe4 build/TEST/production/_ext/816358189/ad5641.o
                0x9d016e34                ad5641_write

.rodata         0x9d016f18       0xdc
 .rodata        0x9d016f18       0xdc build/TEST/production/_ext/2070436302/dio.o
                0x9d016f18                dio_table

.text.general_exception
                0x9d016ff4       0xdc
 .text.general_exception
                0x9d016ff4       0xdc c:/program files/microchip/xc32/v2.50/bin/bin/../../lib/gcc/pic32mx/4.8.3/../../../../pic32mx/lib/fpu64\libpic32.a(general-exception.o)
                0x9d016ff4                _general_exception_context

.text.relay_get
                0x9d0170d0       0xd8
 .text.relay_get
                0x9d0170d0       0xd8 build/TEST/production/_ext/2070436302/relay.o
                0x9d0170d0                relay_get

.text._cache_err_exception_context
                0x9d0171a8       0xd8
 .text._cache_err_exception_context
                0x9d0171a8       0xd8 c:/program files/microchip/xc32/v2.50/bin/bin/../../lib/gcc/pic32mx/4.8.3/../../../../pic32mx/lib/fpu64\libpic32.a(cache-err-exception.o)
                0x9d0171a8                _cache_err_exception_context

.text.simple_tlb_refill_context
                0x9d017280       0xd8
 .text.simple_tlb_refill_context
                0x9d017280       0xd8 c:/program files/microchip/xc32/v2.50/bin/bin/../../lib/gcc/pic32mx/4.8.3/../../../../pic32mx/lib/fpu64\libpic32.a(simple-tlb-refill-exception.o)
                0x9d017280                _simple_tlb_refill_exception_context

.text.compare_string_n
                0x9d017358       0xd4
 .text.compare_string_n
                0x9d017358       0xd4 build/TEST/production/_ext/210424401/string_utils.o
                0x9d017358                compare_string_n

.rodata         0x9d01742c       0xcc
 .rodata        0x9d01742c       0xcc build/TEST/production/_ext/2070436302/mod_spi.o
                0x9d0174f0                spi_number

.text.uart_clear_rx_flag
                0x9d0174f8       0xc8
 .text.uart_clear_rx_flag
                0x9d0174f8       0xc8 build/TEST/production/_ext/1261517080/usart.o
                0x9d0174f8                uart_clear_rx_flag

.text._sbrk     0x9d0175c0       0xc8
 .text._sbrk    0x9d0175c0       0xc8 c:/program files/microchip/xc32/v2.50/bin/bin/../../lib/gcc/pic32mx/4.8.3/../../../../pic32mx/lib/fpu64\libpic32.a(sbrk.o)
                0x9d0175c0                _sbrk

.text.dio_conf  0x9d017688       0xbc
 .text.dio_conf
                0x9d017688       0xbc build/TEST/production/_ext/2070436302/dio.o
                0x9d017688                dio_conf

.tlb.__pic32_tlb_init_ebi_sqi
                0x9d017744       0xbc
 .tlb.__pic32_tlb_init_ebi_sqi
                0x9d017744       0xbc c:/program files/microchip/xc32/v2.50/bin/bin/../../lib/gcc/pic32mx/4.8.3/../../../../pic32mx/lib/fpu64\libpic32.a(pic32_init_tlb_ebi_sqi.o)
                0x9d017744                __pic32_tlb_init_ebi_sqi

.text.intadc_result
                0x9d017800       0xb8
 .text.intadc_result
                0x9d017800       0xb8 build/TEST/production/_ext/2070436302/intadc.o
                0x9d017800                intadc_result

.text.gpio_toggle
                0x9d0178b8       0xb8
 .text.gpio_toggle
                0x9d0178b8       0xb8 build/TEST/production/_ext/455916380/gpio.o
                0x9d0178b8                gpio_toggle

.text.gpio_get  0x9d017970       0xb4
 .text.gpio_get
                0x9d017970       0xb4 build/TEST/production/_ext/455916380/gpio.o
                0x9d017970                gpio_get

.text.mod_pwm_set_duty
                0x9d017a24       0xb0
 .text.mod_pwm_set_duty
                0x9d017a24       0xb0 build/TEST/production/_ext/2070436302/mod_pwm.o
                0x9d017a24                mod_pwm_set_duty

.text.SYSTEM_MakeError
                0x9d017ad4       0xb0
 .text.SYSTEM_MakeError
                0x9d017ad4       0xb0 build/TEST/production/_ext/73441385/system_error.o
                0x9d017ad4                SYSTEM_MakeError

.text.fputc     0x9d017b84       0xac
 .text.fputc    0x9d017b84       0xac c:/program files/microchip/xc32/v2.50/bin/bin/../../lib/gcc/pic32mx/4.8.3/../../../../pic32mx/lib/fpu64\liblega-c.a(fputc.o)
                0x9d017b84                fputc

.text.repl.constprop.0
                0x9d017c30       0xac
 .text.repl.constprop.0
                0x9d017c30       0xac c:/program files/microchip/xc32/v2.50/bin/bin/../../lib/gcc/pic32mx/4.8.3/../../../../pic32mx/lib/fpu64\liblega-c.a(_doprnt_cdnopsuxX.eo)

.text.rd_buffer_init
                0x9d017cdc       0xa8
 .text.rd_buffer_init
                0x9d017cdc       0xa8 build/TEST/production/_ext/210424401/rd_buffer.o
                0x9d017cdc                rd_buffer_init

.text.dio_set_direction
                0x9d017d84       0x9c
 .text.dio_set_direction
                0x9d017d84       0x9c build/TEST/production/_ext/2070436302/dio.o
                0x9d017d84                dio_set_direction

.text.bytes_from_hex
                0x9d017e20       0x9c
 .text.bytes_from_hex
                0x9d017e20       0x9c build/TEST/production/_ext/210424401/string_utils.o
                0x9d017e20                bytes_from_hex

.text.repl      0x9d017ebc       0x9c
 .text.repl     0x9d017ebc       0x9c c:/program files/microchip/xc32/v2.50/bin/bin/../../lib/gcc/pic32mx/4.8.3/../../../../pic32mx/lib/fpu64\liblega-c.a(_doprnt.o)

.text._eat_white
                0x9d017f58       0x9c
 .text._eat_white
                0x9d017f58       0x9c c:/program files/microchip/xc32/v2.50/bin/bin/../../lib/gcc/pic32mx/4.8.3/../../../../pic32mx/lib/fpu64\liblega-c.a(_doscan.o)

.text._i_init   0x9d017ff4       0x98
 .text._i_init  0x9d017ff4       0x98 c:/program files/microchip/xc32/v2.50/bin/bin/../../lib/gcc/pic32mx/4.8.3/../../../../pic32mx/lib/fpu64\liblega-c.a(_ioinit.o)
                0x9d017ff4                _i_init

.text.cap_result
                0x9d01808c       0x90
 .text.cap_result
                0x9d01808c       0x90 build/TEST/production/_ext/2070436302/cap.o
                0x9d01808c                cap_result

.text.refclk_out_cfg
                0x9d01811c       0x90
 .text.refclk_out_cfg
                0x9d01811c       0x90 build/TEST/production/_ext/353641468/refclk.o
                0x9d01811c                refclk_out_cfg

.text.SYSTEM_CommInit
                0x9d0181ac       0x90
 .text.SYSTEM_CommInit
                0x9d0181ac       0x90 build/TEST/production/_ext/73441385/system_comm.o
                0x9d0181ac                SYSTEM_CommInit

.text.compare_string
                0x9d01823c       0x88
 .text.compare_string
                0x9d01823c       0x88 build/TEST/production/_ext/210424401/string_utils.o
                0x9d01823c                compare_string

.text.mod_spi_result
                0x9d0182c4       0x84
 .text.mod_spi_result
                0x9d0182c4       0x84 build/TEST/production/_ext/2070436302/mod_spi.o
                0x9d0182c4                mod_spi_result

.text.function_swspi_result
                0x9d018348       0x84
 .text.function_swspi_result
                0x9d018348       0x84 build/TEST/production/_ext/2070436302/mod_swspi.o
                0x9d018348                function_swspi_result

.text           0x9d0183cc       0x84
 .text          0x9d0183cc       0x84 c:/program files/microchip/xc32/v2.50/bin/bin/../../lib/gcc/pic32mx/4.8.3/../../../../pic32mx/lib/fpu64\libpic32.a(pic32_data_init.o)
                0x9d0183cc                __pic32_data_init

.text.dio_get   0x9d018450       0x80
 .text.dio_get  0x9d018450       0x80 build/TEST/production/_ext/2070436302/dio.o
                0x9d018450                dio_get

.rodata         0x9d0184d0       0x80
 .rodata        0x9d0184d0       0x80 c:/program files/microchip/xc32/v2.50/bin/bin/../../lib/gcc/pic32mx/4.8.3/../../../../pic32mx/lib/fpu64\liblega-c.a(_doprnt.o)

.text._fflush_simple
                0x9d018550       0x80
 .text._fflush_simple
                0x9d018550       0x80 c:/program files/microchip/xc32/v2.50/bin/bin/../../lib/gcc/pic32mx/4.8.3/../../../../pic32mx/lib/fpu64\liblega-c.a(_iobfuncs.o)
                0x9d018550                _fflush_simple

.text._fwrite_simple
                0x9d0185d0       0x80
 .text._fwrite_simple
                0x9d0185d0       0x80 c:/program files/microchip/xc32/v2.50/bin/bin/../../lib/gcc/pic32mx/4.8.3/../../../../pic32mx/lib/fpu64\liblega-c.a(_iobfuncs.o)
                0x9d0185d0                _fwrite_simple

.text.BOARD_Initialize
                0x9d018650       0x7c
 .text.BOARD_Initialize
                0x9d018650       0x7c build/TEST/production/_ext/1537666708/board.o
                0x9d018650                BOARD_Initialize

.text.mod_spi_off
                0x9d0186cc       0x78
 .text.mod_spi_off
                0x9d0186cc       0x78 build/TEST/production/_ext/2070436302/mod_spi.o
                0x9d0186cc                mod_spi_off

.text.scanchain1_result
                0x9d018744       0x78
 .text.scanchain1_result
                0x9d018744       0x78 build/TEST/production/_ext/2070436302/scanchain.o
                0x9d018744                scanchain1_result

.rodata         0x9d0187bc       0x78
 .rodata        0x9d0187bc       0x78 build/TEST/production/_ext/2070436302/cap.o

.text.gpio_set_dir
                0x9d018834       0x78
 .text.gpio_set_dir
                0x9d018834       0x78 build/TEST/production/_ext/455916380/gpio.o
                0x9d018834                gpio_set_dir

.text.fgetc     0x9d0188ac       0x78
 .text.fgetc    0x9d0188ac       0x78 c:/program files/microchip/xc32/v2.50/bin/bin/../../lib/gcc/pic32mx/4.8.3/../../../../pic32mx/lib/fpu64\liblega-c.a(fgetc.o)
                0x9d0188ac                fgetc

.text.add_bit   0x9d018924       0x74
 .text.add_bit  0x9d018924       0x74 build/TEST/production/_ext/801483606/app.o
                0x9d018924                add_bit

.text.main      0x9d018998       0x74
 .text.main     0x9d018998       0x74 build/TEST/production/_ext/1360937237/main.o
                0x9d018998                main

.text._sscanf_cdnopuxX
                0x9d018a0c       0x74
 .text._sscanf_cdnopuxX
                0x9d018a0c       0x74 c:/program files/microchip/xc32/v2.50/bin/bin/../../lib/gcc/pic32mx/4.8.3/../../../../pic32mx/lib/fpu64\liblega-c.a(sscanf_cdnopuxX.eo)
                0x9d018a0c                _sscanf_cdnopuxX

.text.ain_read  0x9d001110       0x70
 .text.ain_read
                0x9d001110       0x70 build/TEST/production/_ext/2070436302/ain.o
                0x9d001110                ain_read

.text.uart_enable
                0x9d001190       0x70
 .text.uart_enable
                0x9d001190       0x70 build/TEST/production/_ext/1261517080/usart.o
                0x9d001190                uart_enable

.text.findpos   0x9d018a80       0x70
 .text.findpos  0x9d018a80       0x70 build/TEST/production/_ext/210424401/string_utils.o
                0x9d018a80                findpos

.text._sprintf_cdnopsuxX
                0x9d018af0       0x6c
 .text._sprintf_cdnopsuxX
                0x9d018af0       0x6c c:/program files/microchip/xc32/v2.50/bin/bin/../../lib/gcc/pic32mx/4.8.3/../../../../pic32mx/lib/fpu64\liblega-c.a(sprintf_cdnopsuxX.eo)
                0x9d018af0                _sprintf_cdnopuxX
                0x9d018af0                _sprintf_cdnopsuxX

.text.dio_init  0x9d018b5c       0x68
 .text.dio_init
                0x9d018b5c       0x68 build/TEST/production/_ext/2070436302/dio.o
                0x9d018b5c                dio_init

.text.SYSTEM_WriteUART
                0x9d018bc4       0x68
 .text.SYSTEM_WriteUART
                0x9d018bc4       0x68 build/TEST/production/_ext/73441385/system_comm.o
                0x9d018bc4                SYSTEM_WriteUART

.text.__sputn   0x9d018c2c       0x68
 .text.__sputn  0x9d018c2c       0x68 c:/program files/microchip/xc32/v2.50/bin/bin/../../lib/gcc/pic32mx/4.8.3/../../../../pic32mx/lib/fpu64\liblega-c.a(_doprnt.o)

.text.memmove   0x9d018c94       0x68
 .text.memmove  0x9d018c94       0x68 c:/program files/microchip/xc32/v2.50/bin/bin/../../lib/gcc/pic32mx/4.8.3/../../../../pic32mx/lib/fpu64\liblega-c.a(memmove.o)
                0x9d018c94                memmove

.text._bufalloc
                0x9d018cfc       0x68
 .text._bufalloc
                0x9d018cfc       0x68 c:/program files/microchip/xc32/v2.50/bin/bin/../../lib/gcc/pic32mx/4.8.3/../../../../pic32mx/lib/fpu64\liblega-c.a(_bufproc.o)
                0x9d018cfc                _bufalloc

.text.relay_conf
                0x9d018d64       0x64
 .text.relay_conf
                0x9d018d64       0x64 build/TEST/production/_ext/2070436302/relay.o
                0x9d018d64                relay_conf

.text.gsgetc    0x9d018dc8       0x64
 .text.gsgetc   0x9d018dc8       0x64 c:/program files/microchip/xc32/v2.50/bin/bin/../../lib/gcc/pic32mx/4.8.3/../../../../pic32mx/lib/fpu64\liblega-c.a(_doscan.o)

.rodata         0x9d018e2c       0x60
 .rodata        0x9d018e2c       0x60 build/TEST/production/_ext/2070436302/unisequencer.o

.text.uart_getc
                0x9d018e8c       0x60
 .text.uart_getc
                0x9d018e8c       0x60 build/TEST/production/_ext/1261517080/usart.o
                0x9d018e8c                uart_getc

.text.SYSTEM_delay_ms
                0x9d018eec       0x60
 .text.SYSTEM_delay_ms
                0x9d018eec       0x60 build/TEST/production/_ext/73441385/system_time.o
                0x9d018eec                SYSTEM_delay_ms

.text.mod_spi_set_speed
                0x9d018f4c       0x5c
 .text.mod_spi_set_speed
                0x9d018f4c       0x5c build/TEST/production/_ext/2070436302/mod_spi.o
                0x9d018f4c                mod_spi_set_speed

.text.softwareReset
                0x9d018fa8       0x5c
 .text.softwareReset
                0x9d018fa8       0x5c build/TEST/production/_ext/1509298662/wdt.o
                0x9d018fa8                softwareReset

.text.copy_text
                0x9d019004       0x5c
 .text.copy_text
                0x9d019004       0x5c build/TEST/production/_ext/210424401/string_utils.o
                0x9d019004                copy_text

.text.rd_buffer_put
                0x9d019060       0x58
 .text.rd_buffer_put
                0x9d019060       0x58 build/TEST/production/_ext/210424401/rd_buffer.o
                0x9d019060                rd_buffer_put

.text.fputs     0x9d0190b8       0x58
 .text.fputs    0x9d0190b8       0x58 c:/program files/microchip/xc32/v2.50/bin/bin/../../lib/gcc/pic32mx/4.8.3/../../../../pic32mx/lib/fpu64\liblega-c.a(fputs.o)
                0x9d0190b8                fputs

.text.APP_Run   0x9d019110       0x54
 .text.APP_Run  0x9d019110       0x54 build/TEST/production/_ext/801483606/app.o
                0x9d019110                APP_Run

.text.main_entry
                0x9d019164       0x54
 .text.main_entry
                0x9d019164       0x54 C:\Users\fg67bz\AppData\Local\Temp\ccOypprZ.o
                0x9d019198                __crt0_exit

.text.systmrA_enable
                0x9d0191b8       0x50
 .text.systmrA_enable
                0x9d0191b8       0x50 build/TEST/production/_ext/401144697/systmr.o
                0x9d0191b8                systmrA_enable

.text.sbrk      0x9d019208       0x50
 .text.sbrk     0x9d019208       0x50 c:/program files/microchip/xc32/v2.50/bin/bin/../../lib/gcc/pic32mx/4.8.3/../../../../pic32mx/lib/fpu64\libpic32.a(sbrk.o)
                0x9d019208                sbrk

.text.mod_pwm_is_enabled
                0x9d019258       0x4c
 .text.mod_pwm_is_enabled
                0x9d019258       0x4c build/TEST/production/_ext/2070436302/mod_pwm.o
                0x9d019258                mod_pwm_is_enabled

.text.APP_Initialize
                0x9d0192a4       0x4c
 .text.APP_Initialize
                0x9d0192a4       0x4c build/TEST/production/_ext/801483606/app.o
                0x9d0192a4                APP_Initialize

.text.adc_read  0x9d0192f0       0x4c
 .text.adc_read
                0x9d0192f0       0x4c build/TEST/production/_ext/1509319821/adc.o
                0x9d0192f0                adc_read

.text.puts      0x9d01933c       0x4c
 .text.puts     0x9d01933c       0x4c c:/program files/microchip/xc32/v2.50/bin/bin/../../lib/gcc/pic32mx/4.8.3/../../../../pic32mx/lib/fpu64\liblega-c.a(fputs.o)
                0x9d01933c                puts

.text._mon_write
                0x9d019388       0x4c
 .text._mon_write
                0x9d019388       0x4c c:/program files/microchip/xc32/v2.50/bin/bin/../../lib/gcc/pic32mx/4.8.3/../../../../pic32mx/lib/fpu64\libpic32.a(_mon_write.o)
                0x9d019388                _mon_write

.text.spi_enable
                0x9d0193d4       0x48
 .text.spi_enable
                0x9d0193d4       0x48 build/TEST/production/_ext/1509302145/spi.o
                0x9d0193d4                spi_enable

.text._bootstrap_exception_handler
                0x9d01941c       0x48
 .text._bootstrap_exception_handler
                0x9d01941c       0x48 c:/program files/microchip/xc32/v2.50/bin/bin/../../lib/gcc/pic32mx/4.8.3/../../../../pic32mx/lib/fpu64\libpic32.a(default-bootstrap-exception-handler.o)
                0x9d01941c                _bootstrap_exception_handler

.text._cache_err_exception_handler
                0x9d019464       0x48
 .text._cache_err_exception_handler
                0x9d019464       0x48 c:/program files/microchip/xc32/v2.50/bin/bin/../../lib/gcc/pic32mx/4.8.3/../../../../pic32mx/lib/fpu64\libpic32.a(default-cache-err-exception-handler.o)
                0x9d019464                _cache_err_exception_handler

.text._simple_tlb_refill_exception_handler
                0x9d0194ac       0x48
 .text._simple_tlb_refill_exception_handler
                0x9d0194ac       0x48 c:/program files/microchip/xc32/v2.50/bin/bin/../../lib/gcc/pic32mx/4.8.3/../../../../pic32mx/lib/fpu64\libpic32.a(default-simple-tlb-refill-exception-handler.o)
                0x9d0194ac                _simple_tlb_refill_exception_handler

.text.aout_set  0x9d0194f4       0x44
 .text.aout_set
                0x9d0194f4       0x44 build/TEST/production/_ext/2070436302/aout.o
                0x9d0194f4                aout_set

.text.SYSTEM_Activity
                0x9d019538       0x44
 .text.SYSTEM_Activity
                0x9d019538       0x44 build/TEST/production/_ext/73441385/system_comm.o
                0x9d019538                SYSTEM_Activity

.text           0x9d01957c       0x44
 .text          0x9d01957c       0x44 c:/program files/microchip/xc32/v2.50/bin/bin/../../lib/gcc/pic32mx/4.8.3/../../../../pic32mx/lib/fpu64\pic32_software_reset.o
                0x9d01957c                __pic32_software_reset

.rodata         0x9d0195c0       0x40
 .rodata        0x9d0195c0       0x40 build/TEST/production/_ext/2070436302/mod_pwm.o

.text.spi_set_clock
                0x9d019600       0x40
 .text.spi_set_clock
                0x9d019600       0x40 build/TEST/production/_ext/1509302145/spi.o
                0x9d019600                spi_set_clock

.text.rd_buffer_get
                0x9d019640       0x40
 .text.rd_buffer_get
                0x9d019640       0x40 build/TEST/production/_ext/210424401/rd_buffer.o
                0x9d019640                rd_buffer_get

.text._general_exception_handler
                0x9d019680       0x40
 .text._general_exception_handler
                0x9d019680       0x40 build/TEST/production/_ext/73441385/system_exceptions.o
                0x9d019680                _general_exception_handler

.text.debug_putc
                0x9d0196c0       0x40
 .text.debug_putc
                0x9d0196c0       0x40 build/TEST/production/_ext/73441385/system_dbg.o
                0x9d0196c0                debug_putc

.text._printf_cdnopsuxX
                0x9d019700       0x40
 .text._printf_cdnopsuxX
                0x9d019700       0x40 c:/program files/microchip/xc32/v2.50/bin/bin/../../lib/gcc/pic32mx/4.8.3/../../../../pic32mx/lib/fpu64\liblega-c.a(printf_cdnopsuxX.eo)
                0x9d019700                _printf_cdnopsuxX
                0x9d019700                _printf_cdnopuxX
                0x9d019700                _printf_0
                0x9d019700                _printf_s

.text.printf    0x9d019740       0x40
 .text.printf   0x9d019740       0x40 c:/program files/microchip/xc32/v2.50/bin/bin/../../lib/gcc/pic32mx/4.8.3/../../../../pic32mx/lib/fpu64\liblega-c.a(printf.o)
                0x9d019740                printf

.rodata         0x9d019780       0x40
 .rodata        0x9d019780       0x40 c:/program files/microchip/xc32/v2.50/bin/bin/../../lib/gcc/pic32mx/4.8.3/../../../../pic32mx/lib/fpu64\libmfd.a(strtod.o)

.text.ain_conf  0x9d0197c0       0x3c
 .text.ain_conf
                0x9d0197c0       0x3c build/TEST/production/_ext/2070436302/ain.o
                0x9d0197c0                ain_conf

.rodata         0x9d0197fc       0x3c
 .rodata        0x9d0197fc       0x3c build/TEST/production/_ext/801483606/on_parameter_found.o

.text.uart_putc
                0x9d019838       0x3c
 .text.uart_putc
                0x9d019838       0x3c build/TEST/production/_ext/1261517080/usart.o
                0x9d019838                uart_putc

.rodata         0x9d019874       0x70
 .rodata        0x9d019874       0x38 build/TEST/production/_ext/2070436302/aout.o
 .rodata        0x9d0198ac       0x38 build/TEST/production/_ext/801483606/app.o

.text.chrono_init
                0x9d0198e4       0x34
 .text.chrono_init
                0x9d0198e4       0x34 build/TEST/production/_ext/744274812/chrono.o
                0x9d0198e4                chrono_init

.text.APP_print_inf
                0x9d019918       0x34
 .text.APP_print_inf
                0x9d019918       0x34 build/TEST/production/_ext/801483606/app.o
                0x9d019918                APP_print_inf

.text.spi_disable
                0x9d01994c       0x34
 .text.spi_disable
                0x9d01994c       0x34 build/TEST/production/_ext/1509302145/spi.o
                0x9d01994c                spi_disable

.text.systmrA_interrupt_enable
                0x9d019980       0x34
 .text.systmrA_interrupt_enable
                0x9d019980       0x34 build/TEST/production/_ext/401144697/systmr.o
                0x9d019980                systmrA_interrupt_enable

.text._filbuf_simple
                0x9d0199b4       0x34
 .text._filbuf_simple
                0x9d0199b4       0x34 c:/program files/microchip/xc32/v2.50/bin/bin/../../lib/gcc/pic32mx/4.8.3/../../../../pic32mx/lib/fpu64\liblega-c.a(_iobfuncs.o)
                0x9d0199b4                _filbuf_simple

.text.aout_value
                0x9d0199e8       0x30
 .text.aout_value
                0x9d0199e8       0x30 build/TEST/production/_ext/2070436302/aout.o
                0x9d0199e8                aout_value

.text._fsync_simple
                0x9d019a18       0x30
 .text._fsync_simple
                0x9d019a18       0x30 c:/program files/microchip/xc32/v2.50/bin/bin/../../lib/gcc/pic32mx/4.8.3/../../../../pic32mx/lib/fpu64\liblega-c.a(_iobfuncs.o)
                0x9d019a18                _fsync_simple

.rodata         0x9d019a48       0x30
 .rodata        0x9d019a48       0x30 c:/program files/microchip/xc32/v2.50/bin/bin/../../lib/gcc/pic32mx/4.8.3/../../../../pic32mx/lib/fpu64\liblega-c.a(_doscan.o)

.text.memcpy    0x9d019a78       0x2c
 .text.memcpy   0x9d019a78       0x2c c:/program files/microchip/xc32/v2.50/bin/bin/../../lib/gcc/pic32mx/4.8.3/../../../../pic32mx/lib/fpu64\liblega-c.a(memcpy.o)
                0x9d019a78                memcpy

.text._stub_sbd_memlayout
                0x9d019aa4       0x2c
 .text._stub_sbd_memlayout
                0x9d019aa4       0x2c c:/program files/microchip/xc32/v2.50/bin/bin/../../lib/gcc/pic32mx/4.8.3/../../../../pic32mx/lib/fpu64\libpic32.a(sbrk.o)
                0x9d019aa4                _sbd_memlayout
                0x9d019aa4                _stub_sbd_memlayout

.text.dio_get_direction
                0x9d019ad0       0x28
 .text.dio_get_direction
                0x9d019ad0       0x28 build/TEST/production/_ext/2070436302/dio.o
                0x9d019ad0                dio_get_direction

.text.adc_trigger_measure
                0x9d019af8       0x28
 .text.adc_trigger_measure
                0x9d019af8       0x28 build/TEST/production/_ext/1509319821/adc.o
                0x9d019af8                adc_trigger_measure

.text.uart_data_available
                0x9d019b20       0x28
 .text.uart_data_available
                0x9d019b20       0x28 build/TEST/production/_ext/1261517080/usart.o
                0x9d019b20                uart_data_available

.rodata         0x9d019b48       0x28
 .rodata        0x9d019b48       0x28 c:/program files/microchip/xc32/v2.50/bin/bin/../../lib/gcc/pic32mx/4.8.3/../../../../pic32mx/lib/fpu64\liblega-c.a(_doprnt_cdnopsuxX.eo)

.text.memset    0x9d019b70       0x28
 .text.memset   0x9d019b70       0x28 c:/program files/microchip/xc32/v2.50/bin/bin/../../lib/gcc/pic32mx/4.8.3/../../../../pic32mx/lib/fpu64\liblega-c.a(memset.o)
                0x9d019b70                memset

.text.mod_refclk_enable
                0x9d019b98       0x24
 .text.mod_refclk_enable
                0x9d019b98       0x24 build/TEST/production/_ext/2070436302/mod_refclk.o
                0x9d019b98                mod_refclk_enable

.text.refclk_out_enable
                0x9d019bbc       0x24
 .text.refclk_out_enable
                0x9d019bbc       0x24 build/TEST/production/_ext/353641468/refclk.o
                0x9d019bbc                refclk_out_enable

.text.rd_buffer_cnt
                0x9d019be0       0x24
 .text.rd_buffer_cnt
                0x9d019be0       0x24 build/TEST/production/_ext/210424401/rd_buffer.o
                0x9d019be0                rd_buffer_cnt

.text.SYSTEM_delay_init
                0x9d019c04       0x24
 .text.SYSTEM_delay_init
                0x9d019c04       0x24 build/TEST/production/_ext/73441385/system_time.o
                0x9d019c04                SYSTEM_delay_init

.text._mon_putc
                0x9d019c28       0x24
 .text._mon_putc
                0x9d019c28       0x24 build/TEST/production/_ext/73441385/system_comm.o
                0x9d019c28                _mon_putc

.text.SYSTEM_SetBaudRate
                0x9d019c4c       0x24
 .text.SYSTEM_SetBaudRate
                0x9d019c4c       0x24 build/TEST/production/_ext/73441385/system_comm.o
                0x9d019c4c                SYSTEM_SetBaudRate

.text.putchar   0x9d019c70       0x24
 .text.putchar  0x9d019c70       0x24 c:/program files/microchip/xc32/v2.50/bin/bin/../../lib/gcc/pic32mx/4.8.3/../../../../pic32mx/lib/fpu64\liblega-c.a(fputc.o)
                0x9d019c70                putchar

.text.strtof    0x9d019c94       0x20
 .text.strtof   0x9d019c94       0x20 c:/program files/microchip/xc32/v2.50/bin/bin/../../lib/gcc/pic32mx/4.8.3/../../../../pic32mx/lib/fpu64\libmfd.a(strtof.o)
                0x9d019c94                strtof

.rodata         0x9d019cb4       0x18
 .rodata        0x9d019cb4       0x18 build/TEST/production/_ext/2070436302/mod_refclk.o

.text.INT_SetMultivectoredMode
                0x9d019ccc       0x18
 .text.INT_SetMultivectoredMode
                0x9d019ccc       0x18 build/TEST/production/_ext/1509311806/int.o
                0x9d019ccc                INT_SetMultivectoredMode

.text.systmrA_clear_flag
                0x9d019ce4       0x18
 .text.systmrA_clear_flag
                0x9d019ce4       0x18 build/TEST/production/_ext/401144697/systmr.o
                0x9d019ce4                systmrA_clear_flag

.text.uart_txline_busy
                0x9d019cfc       0x18
 .text.uart_txline_busy
                0x9d019cfc       0x18 build/TEST/production/_ext/1261517080/usart.o
                0x9d019cfc                uart_txline_busy

.text.clearWdt  0x9d019d14       0x18
 .text.clearWdt
                0x9d019d14       0x18 build/TEST/production/_ext/1509298662/wdt.o
                0x9d019d14                clearWdt

.rodata         0x9d019d30       0x18
 .rodata        0x9d019d30       0x18 build/TEST/production/_ext/783894060/planner.o

.text           0x9d019d48       0x18
 .text          0x9d019d48       0x18 c:/program files/microchip/xc32/v2.50/bin/bin/../../lib/gcc/pic32mx/4.8.3/../../../../pic32mx/lib/fpu64\libpic32.a(default-nmi-handler.o)
                0x9d019d48                _nmi_handler

.rodata         0x9d019d60       0x28
 .rodata        0x9d019d60       0x14 c:/program files/microchip/xc32/v2.50/bin/bin/../../lib/gcc/pic32mx/4.8.3/../../../../pic32mx/lib/fpu64\liblega-c.a(_iobdata.o)
                0x9d019d60                _io_funcs
 .rodata        0x9d019d74       0x14 c:/program files/microchip/xc32/v2.50/bin/bin/../../lib/gcc/pic32mx/4.8.3/../../../../pic32mx/lib/fpu64\liblega-c.a(_iobstring.o)
                0x9d019d74                _io_strfuncs

.rodata         0x9d019d88       0x10
 .rodata        0x9d019d88       0x10 build/TEST/production/_ext/2070436302/ain.o
                0x9d019d88                AIN_MAP

.text.APP_Break
                0x9d019d98       0x10
 .text.APP_Break
                0x9d019d98       0x10 build/TEST/production/_ext/801483606/app.o
                0x9d019d98                APP_Break

.text.rd_buffer_first
                0x9d019da8       0x10
 .text.rd_buffer_first
                0x9d019da8       0x10 build/TEST/production/_ext/210424401/rd_buffer.o
                0x9d019da8                rd_buffer_first

.rodata         0x9d019db8       0x1c
 .rodata        0x9d019db8       0x10 build/TEST/production/_ext/73441385/system_error.o
 .rodata        0x9d019dc8        0xc build/TEST/production/_ext/2070436302/relay.o

.text.rd_buffer_reset
                0x9d019dd4        0xc
 .text.rd_buffer_reset
                0x9d019dd4        0xc build/TEST/production/_ext/210424401/rd_buffer.o
                0x9d019dd4                rd_buffer_reset

.text.syntax_parameter_name
                0x9d019de0        0xc
 .text.syntax_parameter_name
                0x9d019de0        0xc build/TEST/production/_ext/210424401/parser.o
                0x9d019de0                syntax_parameter_name

.rodata         0x9d019dec        0xc
 .rodata        0x9d019dec        0xc build/TEST/production/_ext/73441385/system_comm.o

.text.SYSTEM_ErrorCount
                0x9d019df8        0x8
 .text.SYSTEM_ErrorCount
                0x9d019df8        0x8 build/TEST/production/_ext/73441385/system_error.o
                0x9d019df8                SYSTEM_ErrorCount

.text._on_reset
                0x9d019e00        0x8
 .text._on_reset
                0x9d019e00        0x8 c:/program files/microchip/xc32/v2.50/bin/bin/../../lib/gcc/pic32mx/4.8.3/../../../../pic32mx/lib/fpu64\libpic32.a(default-on-reset.o)
                0x9d019e00                _on_reset

.text._on_bootstrap
                0x9d019e08        0x8
 .text._on_bootstrap
                0x9d019e08        0x8 c:/program files/microchip/xc32/v2.50/bin/bin/../../lib/gcc/pic32mx/4.8.3/../../../../pic32mx/lib/fpu64\libpic32.a(default-on-bootstrap.o)
                0x9d019e08                _on_bootstrap

.text._filbuf_string
                0x9d019e10        0x8
 .text._filbuf_string
                0x9d019e10        0x8 c:/program files/microchip/xc32/v2.50/bin/bin/../../lib/gcc/pic32mx/4.8.3/../../../../pic32mx/lib/fpu64\liblega-c.a(_iobstring.o)

.text._flsbuf_string
                0x9d019e18        0x8
 .text._flsbuf_string
                0x9d019e18        0x8 c:/program files/microchip/xc32/v2.50/bin/bin/../../lib/gcc/pic32mx/4.8.3/../../../../pic32mx/lib/fpu64\liblega-c.a(_iobstring.o)

.text._fflush_string
                0x9d019e20        0x8
 .text._fflush_string
                0x9d019e20        0x8 c:/program files/microchip/xc32/v2.50/bin/bin/../../lib/gcc/pic32mx/4.8.3/../../../../pic32mx/lib/fpu64\liblega-c.a(_iobstring.o)

.text._fwrite_string
                0x9d019e28        0x8
 .text._fwrite_string
                0x9d019e28        0x8 c:/program files/microchip/xc32/v2.50/bin/bin/../../lib/gcc/pic32mx/4.8.3/../../../../pic32mx/lib/fpu64\liblega-c.a(_iobstring.o)

.text._fsync_string
                0x9d019e30        0x8
 .text._fsync_string
                0x9d019e30        0x8 c:/program files/microchip/xc32/v2.50/bin/bin/../../lib/gcc/pic32mx/4.8.3/../../../../pic32mx/lib/fpu64\liblega-c.a(_iobstring.o)

.text.getpagesize
                0x9d019e38        0x8
 .text.getpagesize
                0x9d019e38        0x8 c:/program files/microchip/xc32/v2.50/bin/bin/../../lib/gcc/pic32mx/4.8.3/../../../../pic32mx/lib/fpu64\libpic32.a(sbrk.o)
                0x9d019e38                getpagesize

.text.isatty    0x9d019e40        0x8
 .text.isatty   0x9d019e40        0x8 c:/program files/microchip/xc32/v2.50/bin/bin/../../lib/gcc/pic32mx/4.8.3/../../../../pic32mx/lib/fpu64\libpic32.a(isatty.o)
                0x9d019e40                isatty

.rodata         0x9d019d2c        0x4
 .rodata        0x9d019d2c        0x4 c:/program files/microchip/xc32/v2.50/bin/bin/../../lib/gcc/pic32mx/4.8.3/../../../../pic32mx/lib/fpu64\liblega-c.a(fputs.o)
